ARM GAS  C:\Users\Harsha\AppData\Local\Temp\ccoVwJKe.s 			page 1


   1              		.cpu cortex-m0
   2              		.fpu softvfp
   3              		.eabi_attribute 20, 1
   4              		.eabi_attribute 21, 1
   5              		.eabi_attribute 23, 3
   6              		.eabi_attribute 24, 1
   7              		.eabi_attribute 25, 1
   8              		.eabi_attribute 26, 1
   9              		.eabi_attribute 30, 1
  10              		.eabi_attribute 34, 0
  11              		.eabi_attribute 18, 4
  12              		.code	16
  13              		.file	"BLE_1.c"
  14              		.text
  15              	.Ltext0:
  16              		.cfi_sections	.debug_frame
  17              		.section	.text.CyBle_ServiceInit,"ax",%progbits
  18              		.align	2
  19              		.global	CyBle_ServiceInit
  20              		.code	16
  21              		.thumb_func
  22              		.type	CyBle_ServiceInit, %function
  23              	CyBle_ServiceInit:
  24              	.LFB3:
  25              		.file 1 "Generated_Source\\PSoC4\\BLE_1.c"
   1:Generated_Source\PSoC4/BLE_1.c **** /***************************************************************************//**
   2:Generated_Source\PSoC4/BLE_1.c **** * \file CYBLE.c
   3:Generated_Source\PSoC4/BLE_1.c **** * \version 2.20
   4:Generated_Source\PSoC4/BLE_1.c **** * 
   5:Generated_Source\PSoC4/BLE_1.c **** * \brief
   6:Generated_Source\PSoC4/BLE_1.c **** *  This file contains the source code for the Common APIs of the BLE Component.
   7:Generated_Source\PSoC4/BLE_1.c **** * 
   8:Generated_Source\PSoC4/BLE_1.c **** ********************************************************************************
   9:Generated_Source\PSoC4/BLE_1.c **** * \copyright
  10:Generated_Source\PSoC4/BLE_1.c **** * Copyright 2014-2015, Cypress Semiconductor Corporation.  All rights reserved.
  11:Generated_Source\PSoC4/BLE_1.c **** * You may use this file only in accordance with the license, terms, conditions,
  12:Generated_Source\PSoC4/BLE_1.c **** * disclaimers, and limitations in the end user license agreement accompanying
  13:Generated_Source\PSoC4/BLE_1.c **** * the software package with which this file was provided.
  14:Generated_Source\PSoC4/BLE_1.c **** *******************************************************************************/
  15:Generated_Source\PSoC4/BLE_1.c **** 
  16:Generated_Source\PSoC4/BLE_1.c **** #include "BLE_1_eventHandler.h"
  17:Generated_Source\PSoC4/BLE_1.c **** #include "BLE_1_HAL_PVT.h"
  18:Generated_Source\PSoC4/BLE_1.c **** #include <stdlib.h>
  19:Generated_Source\PSoC4/BLE_1.c **** 
  20:Generated_Source\PSoC4/BLE_1.c **** 
  21:Generated_Source\PSoC4/BLE_1.c **** /***************************************
  22:Generated_Source\PSoC4/BLE_1.c **** * Function Prototypes
  23:Generated_Source\PSoC4/BLE_1.c **** ***************************************/
  24:Generated_Source\PSoC4/BLE_1.c **** 
  25:Generated_Source\PSoC4/BLE_1.c **** #if(CYBLE_GATT_ROLE_SERVER)
  26:Generated_Source\PSoC4/BLE_1.c ****     #if(CYBLE_GAP_ROLE_PERIPHERAL)
  27:Generated_Source\PSoC4/BLE_1.c ****         static void CyBle_ChangeAdLocalName(const char8 name[], uint8 dest);
  28:Generated_Source\PSoC4/BLE_1.c ****     #endif /* (CYBLE_GAP_ROLE_PERIPHERAL) */
  29:Generated_Source\PSoC4/BLE_1.c **** #endif /* (CYBLE_GATT_ROLE_SERVER) */
  30:Generated_Source\PSoC4/BLE_1.c ****     
  31:Generated_Source\PSoC4/BLE_1.c **** 
  32:Generated_Source\PSoC4/BLE_1.c **** /***************************************
ARM GAS  C:\Users\Harsha\AppData\Local\Temp\ccoVwJKe.s 			page 2


  33:Generated_Source\PSoC4/BLE_1.c **** * Global Variables
  34:Generated_Source\PSoC4/BLE_1.c **** ***************************************/
  35:Generated_Source\PSoC4/BLE_1.c **** 
  36:Generated_Source\PSoC4/BLE_1.c **** /* Indicates whether the BLE has been initialized. The variable is initialized to
  37:Generated_Source\PSoC4/BLE_1.c ****    0 and set to 1 the first time CyBle_Start() is called. This allows the component
  38:Generated_Source\PSoC4/BLE_1.c ****    to restart without reinitialization after the first call to the CyBle_Start() 
  39:Generated_Source\PSoC4/BLE_1.c ****    routine. If reinitialization of the component is required, the variable should 
  40:Generated_Source\PSoC4/BLE_1.c ****    be set to 0 before the CyBle_Start() routine is called. Alternatively, the BLE
  41:Generated_Source\PSoC4/BLE_1.c ****    can be reinitialized by calling the CyBle_Init() function.
  42:Generated_Source\PSoC4/BLE_1.c **** */
  43:Generated_Source\PSoC4/BLE_1.c **** uint8  cyBle_initVar = 0u;
  44:Generated_Source\PSoC4/BLE_1.c **** 
  45:Generated_Source\PSoC4/BLE_1.c **** /* Allocate RAM memory for stack. This buffer could be reused by application when 
  46:Generated_Source\PSoC4/BLE_1.c ****    BLE component is stopped. For export mode buffer is allocated in heap.
  47:Generated_Source\PSoC4/BLE_1.c **** */
  48:Generated_Source\PSoC4/BLE_1.c **** #if(CYBLE_SHARING_MODE_EXPORT)
  49:Generated_Source\PSoC4/BLE_1.c ****     
  50:Generated_Source\PSoC4/BLE_1.c **** uint8 *cyBle_stackMemoryRam = NULL;
  51:Generated_Source\PSoC4/BLE_1.c **** 
  52:Generated_Source\PSoC4/BLE_1.c **** #else
  53:Generated_Source\PSoC4/BLE_1.c **** 
  54:Generated_Source\PSoC4/BLE_1.c **** CYBLE_CYALIGNED_BEGIN uint8 cyBle_stackMemoryRam[CYBLE_STACK_RAM_SIZE] CYBLE_CYALIGNED_END;
  55:Generated_Source\PSoC4/BLE_1.c **** 
  56:Generated_Source\PSoC4/BLE_1.c **** #endif  /* CYBLE_SHARING_MODE_EXPORT */
  57:Generated_Source\PSoC4/BLE_1.c **** 
  58:Generated_Source\PSoC4/BLE_1.c **** #if(CYBLE_GAP_ROLE_PERIPHERAL || CYBLE_GAP_ROLE_BROADCASTER)
  59:Generated_Source\PSoC4/BLE_1.c **** 
  60:Generated_Source\PSoC4/BLE_1.c **** 
  61:Generated_Source\PSoC4/BLE_1.c **** 
  62:Generated_Source\PSoC4/BLE_1.c **** #endif /* CYBLE_GAP_ROLE_PERIPHERAL || CYBLE_GAP_ROLE_BROADCASTER */
  63:Generated_Source\PSoC4/BLE_1.c **** 
  64:Generated_Source\PSoC4/BLE_1.c **** #if(CYBLE_GAP_ROLE_CENTRAL)
  65:Generated_Source\PSoC4/BLE_1.c ****     
  66:Generated_Source\PSoC4/BLE_1.c **** CYBLE_GAPC_CONN_PARAM_T cyBle_connectionParameters;
  67:Generated_Source\PSoC4/BLE_1.c **** 
  68:Generated_Source\PSoC4/BLE_1.c **** /* Connecting timeout is set to 30 seconds in CyBle_Init function. 
  69:Generated_Source\PSoC4/BLE_1.c ****    Not zero value starts timer in CyBle_GapcConnectDevice API.
  70:Generated_Source\PSoC4/BLE_1.c **** */
  71:Generated_Source\PSoC4/BLE_1.c **** uint16 cyBle_connectingTimeout;
  72:Generated_Source\PSoC4/BLE_1.c ****     
  73:Generated_Source\PSoC4/BLE_1.c **** #endif /* CYBLE_GAP_ROLE_CENTRAL */
  74:Generated_Source\PSoC4/BLE_1.c **** 
  75:Generated_Source\PSoC4/BLE_1.c **** #if(CYBLE_GAP_ROLE_CENTRAL || CYBLE_GAP_ROLE_OBSERVER)
  76:Generated_Source\PSoC4/BLE_1.c ****     
  77:Generated_Source\PSoC4/BLE_1.c **** /* This variable of type CYBLE_GAPC_DISC_INFO_T is present only when  
  78:Generated_Source\PSoC4/BLE_1.c ****    the BLE component is configured for Central GAP role or Central and  
  79:Generated_Source\PSoC4/BLE_1.c ****    Peripheral GAP role. It contains the Scan settings entered in the  
  80:Generated_Source\PSoC4/BLE_1.c ****    customizer. This variable can be used by advanced users to change Scan  
  81:Generated_Source\PSoC4/BLE_1.c ****    settings in runtime.
  82:Generated_Source\PSoC4/BLE_1.c **** */
  83:Generated_Source\PSoC4/BLE_1.c **** CYBLE_GAPC_DISC_INFO_T cyBle_discoveryInfo =
  84:Generated_Source\PSoC4/BLE_1.c **** {
  85:Generated_Source\PSoC4/BLE_1.c ****     0x02u,      /* discProcedure */
  86:Generated_Source\PSoC4/BLE_1.c ****     0x01u,      /* scanType */
  87:Generated_Source\PSoC4/BLE_1.c ****     0x0008u,    /* scanInterval */
  88:Generated_Source\PSoC4/BLE_1.c ****     0x0008u,    /* scanWindow */
  89:Generated_Source\PSoC4/BLE_1.c ****     0x00u,      /* ownAddrType */
ARM GAS  C:\Users\Harsha\AppData\Local\Temp\ccoVwJKe.s 			page 3


  90:Generated_Source\PSoC4/BLE_1.c ****     0x00u,      /* scanFilterPolicy */
  91:Generated_Source\PSoC4/BLE_1.c ****     0x003Cu,    /* scanTO */
  92:Generated_Source\PSoC4/BLE_1.c ****     0x00u,      /* filterDuplicates */
  93:Generated_Source\PSoC4/BLE_1.c **** };
  94:Generated_Source\PSoC4/BLE_1.c ****     
  95:Generated_Source\PSoC4/BLE_1.c **** #endif /* CYBLE_GAP_ROLE_CENTRAL || CYBLE_GAP_ROLE_OBSERVER */
  96:Generated_Source\PSoC4/BLE_1.c **** 
  97:Generated_Source\PSoC4/BLE_1.c **** #if((CYBLE_GAP_ROLE_PERIPHERAL || CYBLE_GAP_ROLE_CENTRAL) && (CYBLE_BONDING_REQUIREMENT == CYBLE_BO
  98:Generated_Source\PSoC4/BLE_1.c **** 
  99:Generated_Source\PSoC4/BLE_1.c **** uint8 cyBle_peerBonding;
 100:Generated_Source\PSoC4/BLE_1.c **** uint8 cyBle_pendingFlashWrite;
 101:Generated_Source\PSoC4/BLE_1.c ****     
 102:Generated_Source\PSoC4/BLE_1.c **** #endif  /* (CYBLE_BONDING_REQUIREMENT == CYBLE_BONDING_YES) */
 103:Generated_Source\PSoC4/BLE_1.c **** 
 104:Generated_Source\PSoC4/BLE_1.c **** CYBLE_CALLBACK_T CyBle_ApplCallback;
 105:Generated_Source\PSoC4/BLE_1.c **** CYBLE_GAP_BD_ADDR_T cyBle_deviceAddress = {{0x00u, 0x00u, 0x00u, 0x50u, 0xA0u, 0x00u}, 0x00u };
 106:Generated_Source\PSoC4/BLE_1.c **** CYBLE_GAP_BD_ADDR_T * cyBle_sflashDeviceAddress = CYBLE_SFLASH_DEVICE_ADDRESS_PTR;
 107:Generated_Source\PSoC4/BLE_1.c **** 
 108:Generated_Source\PSoC4/BLE_1.c **** #if(CYBLE_MODE_PROFILE)
 109:Generated_Source\PSoC4/BLE_1.c ****     #if defined(__ARMCC_VERSION)
 110:Generated_Source\PSoC4/BLE_1.c ****         CY_ALIGN(CYDEV_FLS_ROW_SIZE) const uint8 cyBle_StackFlashptr[CYBLE_STACK_FLASH_SIZE] = {0u}
 111:Generated_Source\PSoC4/BLE_1.c ****     #elif defined (__GNUC__)
 112:Generated_Source\PSoC4/BLE_1.c ****         const uint8 cyBle_StackFlashptr[CYBLE_STACK_FLASH_SIZE] CY_ALIGN(CYDEV_FLS_ROW_SIZE) = {0u}
 113:Generated_Source\PSoC4/BLE_1.c ****     #elif defined (__ICCARM__)
 114:Generated_Source\PSoC4/BLE_1.c ****         #pragma data_alignment=CY_FLASH_SIZEOF_ROW
 115:Generated_Source\PSoC4/BLE_1.c ****         const uint8 cyBle_StackFlashptr[CYBLE_STACK_FLASH_SIZE] = {0u};
 116:Generated_Source\PSoC4/BLE_1.c ****     #endif  /* (__ARMCC_VERSION) */
 117:Generated_Source\PSoC4/BLE_1.c **** #endif /* (CYBLE_MODE_PROFILE) */
 118:Generated_Source\PSoC4/BLE_1.c **** 
 119:Generated_Source\PSoC4/BLE_1.c **** 
 120:Generated_Source\PSoC4/BLE_1.c **** /******************************************************************************
 121:Generated_Source\PSoC4/BLE_1.c **** * Function Name: CyBle_Init
 122:Generated_Source\PSoC4/BLE_1.c **** ***************************************************************************//**
 123:Generated_Source\PSoC4/BLE_1.c **** *   Initializes the component with the parameters set in the customizer.
 124:Generated_Source\PSoC4/BLE_1.c **** * 
 125:Generated_Source\PSoC4/BLE_1.c **** *  \return
 126:Generated_Source\PSoC4/BLE_1.c **** *   None
 127:Generated_Source\PSoC4/BLE_1.c **** * 
 128:Generated_Source\PSoC4/BLE_1.c **** ******************************************************************************/
 129:Generated_Source\PSoC4/BLE_1.c **** void CyBle_Init(void)
 130:Generated_Source\PSoC4/BLE_1.c **** {
 131:Generated_Source\PSoC4/BLE_1.c ****     cyBle_eventHandlerFlag = 0u;
 132:Generated_Source\PSoC4/BLE_1.c ****     cyBle_busyStatus = CYBLE_STACK_STATE_FREE;
 133:Generated_Source\PSoC4/BLE_1.c **** 
 134:Generated_Source\PSoC4/BLE_1.c ****     #if(CYBLE_GAP_ROLE_PERIPHERAL || CYBLE_GAP_ROLE_BROADCASTER) 
 135:Generated_Source\PSoC4/BLE_1.c ****         cyBle_advertisingIntervalType = CYBLE_ADVERTISING_FAST; 
 136:Generated_Source\PSoC4/BLE_1.c ****     #endif /* (CYBLE_GAP_ROLE_PERIPHERAL || CYBLE_GAP_ROLE_BROADCASTER)  */
 137:Generated_Source\PSoC4/BLE_1.c ****     #if(CYBLE_GAP_ROLE_CENTRAL || CYBLE_GAP_ROLE_OBSERVER)
 138:Generated_Source\PSoC4/BLE_1.c ****         cyBle_scanningIntervalType = CYBLE_SCANNING_FAST; 
 139:Generated_Source\PSoC4/BLE_1.c ****     #endif /* (CYBLE_GAP_ROLE_CENTRAL || CYBLE_GAP_ROLE_OBSERVER) */
 140:Generated_Source\PSoC4/BLE_1.c ****         
 141:Generated_Source\PSoC4/BLE_1.c ****     /* Init default connection parameters. 
 142:Generated_Source\PSoC4/BLE_1.c ****        Application may change it before initiating a connection */
 143:Generated_Source\PSoC4/BLE_1.c ****     #if(CYBLE_GAP_ROLE_CENTRAL)
 144:Generated_Source\PSoC4/BLE_1.c ****         cyBle_connectionParameters.scanIntv = cyBle_discoveryInfo.scanIntv;
 145:Generated_Source\PSoC4/BLE_1.c ****         cyBle_connectionParameters.scanWindow = cyBle_discoveryInfo.scanWindow;
 146:Generated_Source\PSoC4/BLE_1.c ****         cyBle_connectionParameters.ownAddrType = cyBle_discoveryInfo.ownAddrType;
ARM GAS  C:\Users\Harsha\AppData\Local\Temp\ccoVwJKe.s 			page 4


 147:Generated_Source\PSoC4/BLE_1.c ****         cyBle_connectionParameters.initiatorFilterPolicy = cyBle_discoveryInfo.scanFilterPolicy;
 148:Generated_Source\PSoC4/BLE_1.c ****         cyBle_connectionParameters.connIntvMin = CYBLE_GAPC_CONNECTION_INTERVAL_MIN;
 149:Generated_Source\PSoC4/BLE_1.c ****         cyBle_connectionParameters.connIntvMax = CYBLE_GAPC_CONNECTION_INTERVAL_MAX;
 150:Generated_Source\PSoC4/BLE_1.c ****         cyBle_connectionParameters.connLatency = CYBLE_GAPC_CONNECTION_SLAVE_LATENCY;
 151:Generated_Source\PSoC4/BLE_1.c ****         cyBle_connectionParameters.supervisionTO = CYBLE_GAPC_CONNECTION_TIME_OUT;
 152:Generated_Source\PSoC4/BLE_1.c ****         cyBle_connectionParameters.minCeLength = 0x0000u;
 153:Generated_Source\PSoC4/BLE_1.c ****         cyBle_connectionParameters.maxCeLength = 0xFFFFu;
 154:Generated_Source\PSoC4/BLE_1.c ****         
 155:Generated_Source\PSoC4/BLE_1.c ****         cyBle_connectingTimeout = CYBLE_GAPC_CONNECTING_TIMEOUT;
 156:Generated_Source\PSoC4/BLE_1.c ****     #endif /* CYBLE_GAP_ROLE_CENTRAL */
 157:Generated_Source\PSoC4/BLE_1.c **** 
 158:Generated_Source\PSoC4/BLE_1.c ****     CyBle_ServiceInit();
 159:Generated_Source\PSoC4/BLE_1.c **** 
 160:Generated_Source\PSoC4/BLE_1.c ****     #if((CYBLE_GAP_ROLE_PERIPHERAL || CYBLE_GAP_ROLE_CENTRAL) && (CYBLE_BONDING_REQUIREMENT == CYBL
 161:Generated_Source\PSoC4/BLE_1.c ****         cyBle_pendingFlashWrite = 0u;
 162:Generated_Source\PSoC4/BLE_1.c ****         cyBle_peerBonding = CYBLE_GAP_BONDING_NONE;
 163:Generated_Source\PSoC4/BLE_1.c ****     #endif  /* (CYBLE_BONDING_REQUIREMENT == CYBLE_BONDING_YES) */
 164:Generated_Source\PSoC4/BLE_1.c **** 
 165:Generated_Source\PSoC4/BLE_1.c **** }
 166:Generated_Source\PSoC4/BLE_1.c **** 
 167:Generated_Source\PSoC4/BLE_1.c **** 
 168:Generated_Source\PSoC4/BLE_1.c **** /******************************************************************************
 169:Generated_Source\PSoC4/BLE_1.c **** * Function Name: CyBle_ServiceInit
 170:Generated_Source\PSoC4/BLE_1.c **** ***************************************************************************//**
 171:Generated_Source\PSoC4/BLE_1.c **** * 
 172:Generated_Source\PSoC4/BLE_1.c **** *  Initializes all included services.
 173:Generated_Source\PSoC4/BLE_1.c **** * 
 174:Generated_Source\PSoC4/BLE_1.c **** * \return
 175:Generated_Source\PSoC4/BLE_1.c **** *  None
 176:Generated_Source\PSoC4/BLE_1.c **** * 
 177:Generated_Source\PSoC4/BLE_1.c **** ******************************************************************************/
 178:Generated_Source\PSoC4/BLE_1.c **** void CyBle_ServiceInit(void)
 179:Generated_Source\PSoC4/BLE_1.c **** {
  26              		.loc 1 179 0
  27              		.cfi_startproc
  28 0000 08B5     		push	{r3, lr}
  29              		.cfi_def_cfa_offset 8
  30              		.cfi_offset 3, -8
  31              		.cfi_offset 14, -4
 180:Generated_Source\PSoC4/BLE_1.c ****     #if(CYBLE_GATT_ROLE_CLIENT)
 181:Generated_Source\PSoC4/BLE_1.c ****         (void)memset(&cyBle_gapc, 0, sizeof(cyBle_gapc));
  32              		.loc 1 181 0
  33 0002 074A     		ldr	r2, .L2
  34 0004 0023     		mov	r3, #0
  35 0006 1380     		strh	r3, [r2]
  36 0008 5380     		strh	r3, [r2, #2]
  37 000a 9380     		strh	r3, [r2, #4]
  38 000c D380     		strh	r3, [r2, #6]
  39 000e 1381     		strh	r3, [r2, #8]
 182:Generated_Source\PSoC4/BLE_1.c ****         (void)memset(&cyBle_gattc, 0, sizeof(cyBle_gattc));
  40              		.loc 1 182 0
  41 0010 044A     		ldr	r2, .L2+4
  42 0012 1380     		strh	r3, [r2]
  43 0014 5380     		strh	r3, [r2, #2]
  44 0016 9380     		strh	r3, [r2, #4]
 183:Generated_Source\PSoC4/BLE_1.c ****     #endif /* CYBLE_GATT_ROLE_CLIENT */
 184:Generated_Source\PSoC4/BLE_1.c ****     
ARM GAS  C:\Users\Harsha\AppData\Local\Temp\ccoVwJKe.s 			page 5


 185:Generated_Source\PSoC4/BLE_1.c **** 	#ifdef CYBLE_ANCS
 186:Generated_Source\PSoC4/BLE_1.c ****         CyBle_AncsInit();
 187:Generated_Source\PSoC4/BLE_1.c ****     #endif /* CYBLE_ANCS */
 188:Generated_Source\PSoC4/BLE_1.c **** 	
 189:Generated_Source\PSoC4/BLE_1.c ****     #ifdef CYBLE_ANS
 190:Generated_Source\PSoC4/BLE_1.c ****         CyBle_AnsInit();
 191:Generated_Source\PSoC4/BLE_1.c ****     #endif /* CYBLE_ANS */
 192:Generated_Source\PSoC4/BLE_1.c ****     
 193:Generated_Source\PSoC4/BLE_1.c ****     #ifdef CYBLE_BAS
 194:Generated_Source\PSoC4/BLE_1.c ****         CyBle_BasInit();
 195:Generated_Source\PSoC4/BLE_1.c ****     #endif /* CYBLE_BAS */
 196:Generated_Source\PSoC4/BLE_1.c ****     
 197:Generated_Source\PSoC4/BLE_1.c ****     #ifdef CYBLE_BLS
 198:Generated_Source\PSoC4/BLE_1.c ****         CyBle_BlsInit();
 199:Generated_Source\PSoC4/BLE_1.c ****     #endif /* CYBLE_BLS */
 200:Generated_Source\PSoC4/BLE_1.c ****     
 201:Generated_Source\PSoC4/BLE_1.c ****     #ifdef CYBLE_BMS
 202:Generated_Source\PSoC4/BLE_1.c ****         CyBle_BmsInit();
 203:Generated_Source\PSoC4/BLE_1.c ****     #endif /* CYBLE_BMS */
 204:Generated_Source\PSoC4/BLE_1.c ****     
 205:Generated_Source\PSoC4/BLE_1.c ****     #ifdef CYBLE_CGMS
 206:Generated_Source\PSoC4/BLE_1.c ****         CyBle_CgmsInit();
 207:Generated_Source\PSoC4/BLE_1.c ****     #endif /* CYBLE_CGMS */
 208:Generated_Source\PSoC4/BLE_1.c **** 
 209:Generated_Source\PSoC4/BLE_1.c ****     #ifdef CYBLE_CPS
 210:Generated_Source\PSoC4/BLE_1.c ****         CyBle_CpsInit();
 211:Generated_Source\PSoC4/BLE_1.c ****     #endif /* CYBLE_CPS */
 212:Generated_Source\PSoC4/BLE_1.c **** 
 213:Generated_Source\PSoC4/BLE_1.c ****     #ifdef CYBLE_CSCS
 214:Generated_Source\PSoC4/BLE_1.c ****         CyBle_CscsInit();
 215:Generated_Source\PSoC4/BLE_1.c ****     #endif /* CYBLE_CSCS */
 216:Generated_Source\PSoC4/BLE_1.c ****     
 217:Generated_Source\PSoC4/BLE_1.c ****     #ifdef CYBLE_CTS
 218:Generated_Source\PSoC4/BLE_1.c ****         CyBle_CtsInit();
 219:Generated_Source\PSoC4/BLE_1.c ****     #endif /* CYBLE_CTS */
 220:Generated_Source\PSoC4/BLE_1.c **** 
 221:Generated_Source\PSoC4/BLE_1.c ****     #ifdef CYBLE_DIS
 222:Generated_Source\PSoC4/BLE_1.c ****         CyBle_DisInit();
 223:Generated_Source\PSoC4/BLE_1.c ****     #endif /* CYBLE_DIS */
 224:Generated_Source\PSoC4/BLE_1.c **** 
 225:Generated_Source\PSoC4/BLE_1.c ****     #ifdef CYBLE_ESS
 226:Generated_Source\PSoC4/BLE_1.c ****         CyBle_EssInit();
 227:Generated_Source\PSoC4/BLE_1.c ****     #endif /* CYBLE_ESS */
 228:Generated_Source\PSoC4/BLE_1.c ****     
 229:Generated_Source\PSoC4/BLE_1.c ****     #ifdef CYBLE_GLS
 230:Generated_Source\PSoC4/BLE_1.c ****         CyBle_GlsInit();
 231:Generated_Source\PSoC4/BLE_1.c ****     #endif /* CYBLE_GLS */
 232:Generated_Source\PSoC4/BLE_1.c ****     
 233:Generated_Source\PSoC4/BLE_1.c ****     #ifdef CYBLE_CUSTOM
 234:Generated_Source\PSoC4/BLE_1.c ****         CyBle_CustomInit();
  45              		.loc 1 234 0
  46 0018 FFF7FEFF 		bl	CyBle_CustomInit
  47              	.LVL0:
 235:Generated_Source\PSoC4/BLE_1.c ****     #endif /* CYBLE_CUSTOM */
 236:Generated_Source\PSoC4/BLE_1.c **** 
 237:Generated_Source\PSoC4/BLE_1.c ****     #ifdef CYBLE_HIDS
 238:Generated_Source\PSoC4/BLE_1.c ****         CyBle_HidsInit();
ARM GAS  C:\Users\Harsha\AppData\Local\Temp\ccoVwJKe.s 			page 6


 239:Generated_Source\PSoC4/BLE_1.c ****     #endif /* CYBLE_HIDS */
 240:Generated_Source\PSoC4/BLE_1.c **** 
 241:Generated_Source\PSoC4/BLE_1.c ****     #ifdef CYBLE_HRS
 242:Generated_Source\PSoC4/BLE_1.c ****         CyBle_HrsInit();
 243:Generated_Source\PSoC4/BLE_1.c ****     #endif /* CYBLE_HRS */
 244:Generated_Source\PSoC4/BLE_1.c ****     
 245:Generated_Source\PSoC4/BLE_1.c ****     #ifdef CYBLE_HTS
 246:Generated_Source\PSoC4/BLE_1.c ****         CyBle_HtsInit();
 247:Generated_Source\PSoC4/BLE_1.c ****     #endif /* CYBLE_RSCS */
 248:Generated_Source\PSoC4/BLE_1.c **** 
 249:Generated_Source\PSoC4/BLE_1.c ****     #ifdef CYBLE_IAS
 250:Generated_Source\PSoC4/BLE_1.c ****         CyBle_IasInit();
 251:Generated_Source\PSoC4/BLE_1.c ****     #endif /* CYBLE_IAS */
 252:Generated_Source\PSoC4/BLE_1.c **** 
 253:Generated_Source\PSoC4/BLE_1.c ****     #ifdef CYBLE_LLS
 254:Generated_Source\PSoC4/BLE_1.c ****         CyBle_LlsInit();
 255:Generated_Source\PSoC4/BLE_1.c ****     #endif /* CYBLE_LLS */
 256:Generated_Source\PSoC4/BLE_1.c **** 
 257:Generated_Source\PSoC4/BLE_1.c ****     #ifdef CYBLE_RTUS
 258:Generated_Source\PSoC4/BLE_1.c ****         CyBle_RtusInit();
 259:Generated_Source\PSoC4/BLE_1.c ****     #endif /* CYBLE_RTUS */
 260:Generated_Source\PSoC4/BLE_1.c **** 
 261:Generated_Source\PSoC4/BLE_1.c ****     #ifdef CYBLE_LNS
 262:Generated_Source\PSoC4/BLE_1.c ****         CyBle_LnsInit();
 263:Generated_Source\PSoC4/BLE_1.c ****     #endif /* CYBLE_LNS */
 264:Generated_Source\PSoC4/BLE_1.c ****     
 265:Generated_Source\PSoC4/BLE_1.c ****     #ifdef CYBLE_PASS
 266:Generated_Source\PSoC4/BLE_1.c ****         CyBle_PassInit();
 267:Generated_Source\PSoC4/BLE_1.c ****     #endif /* CYBLE_PASS */
 268:Generated_Source\PSoC4/BLE_1.c ****     
 269:Generated_Source\PSoC4/BLE_1.c ****     #ifdef CYBLE_RSCS
 270:Generated_Source\PSoC4/BLE_1.c ****         CyBle_RscsInit();
 271:Generated_Source\PSoC4/BLE_1.c ****     #endif /* CYBLE_RSCS */
 272:Generated_Source\PSoC4/BLE_1.c **** 
 273:Generated_Source\PSoC4/BLE_1.c ****     #ifdef CYBLE_SCPS
 274:Generated_Source\PSoC4/BLE_1.c ****         CyBle_ScpsInit();
 275:Generated_Source\PSoC4/BLE_1.c ****     #endif /* CYBLE_SCPS */
 276:Generated_Source\PSoC4/BLE_1.c ****     
 277:Generated_Source\PSoC4/BLE_1.c ****     #ifdef CYBLE_TPS
 278:Generated_Source\PSoC4/BLE_1.c ****         CyBle_TpsInit();
 279:Generated_Source\PSoC4/BLE_1.c ****     #endif /* CYBLE_TPS */
 280:Generated_Source\PSoC4/BLE_1.c ****     
 281:Generated_Source\PSoC4/BLE_1.c ****     #ifdef CYBLE_UDS
 282:Generated_Source\PSoC4/BLE_1.c ****         CyBle_UdsInit();
 283:Generated_Source\PSoC4/BLE_1.c ****     #endif /* CYBLE_UDS */
 284:Generated_Source\PSoC4/BLE_1.c **** 
 285:Generated_Source\PSoC4/BLE_1.c ****     #ifdef CYBLE_WPTS
 286:Generated_Source\PSoC4/BLE_1.c ****         CyBle_WptsInit();
 287:Generated_Source\PSoC4/BLE_1.c ****     #endif /* CYBLE_WPTS */
 288:Generated_Source\PSoC4/BLE_1.c **** 
 289:Generated_Source\PSoC4/BLE_1.c ****     #ifdef CYBLE_WSS
 290:Generated_Source\PSoC4/BLE_1.c ****         CyBle_WssInit();
 291:Generated_Source\PSoC4/BLE_1.c ****     #endif /* CYBLE_WSS */
 292:Generated_Source\PSoC4/BLE_1.c **** }
  48              		.loc 1 292 0
  49              		@ sp needed
  50 001c 08BD     		pop	{r3, pc}
ARM GAS  C:\Users\Harsha\AppData\Local\Temp\ccoVwJKe.s 			page 7


  51              	.L3:
  52 001e C046     		.align	2
  53              	.L2:
  54 0020 00000000 		.word	cyBle_gapc
  55 0024 00000000 		.word	cyBle_gattc
  56              		.cfi_endproc
  57              	.LFE3:
  58              		.size	CyBle_ServiceInit, .-CyBle_ServiceInit
  59              		.section	.text.CyBle_Init,"ax",%progbits
  60              		.align	2
  61              		.global	CyBle_Init
  62              		.code	16
  63              		.thumb_func
  64              		.type	CyBle_Init, %function
  65              	CyBle_Init:
  66              	.LFB2:
 130:Generated_Source\PSoC4/BLE_1.c ****     cyBle_eventHandlerFlag = 0u;
  67              		.loc 1 130 0
  68              		.cfi_startproc
  69 0000 08B5     		push	{r3, lr}
  70              		.cfi_def_cfa_offset 8
  71              		.cfi_offset 3, -8
  72              		.cfi_offset 14, -4
 131:Generated_Source\PSoC4/BLE_1.c ****     cyBle_busyStatus = CYBLE_STACK_STATE_FREE;
  73              		.loc 1 131 0
  74 0002 0022     		mov	r2, #0
  75 0004 0F4B     		ldr	r3, .L5
  76 0006 1A70     		strb	r2, [r3]
 132:Generated_Source\PSoC4/BLE_1.c **** 
  77              		.loc 1 132 0
  78 0008 0F4B     		ldr	r3, .L5+4
  79 000a 1A70     		strb	r2, [r3]
 138:Generated_Source\PSoC4/BLE_1.c ****     #endif /* (CYBLE_GAP_ROLE_CENTRAL || CYBLE_GAP_ROLE_OBSERVER) */
  80              		.loc 1 138 0
  81 000c 0F4B     		ldr	r3, .L5+8
  82 000e 1A70     		strb	r2, [r3]
 144:Generated_Source\PSoC4/BLE_1.c ****         cyBle_connectionParameters.scanWindow = cyBle_discoveryInfo.scanWindow;
  83              		.loc 1 144 0
  84 0010 0F49     		ldr	r1, .L5+12
  85 0012 4888     		ldrh	r0, [r1, #2]
  86 0014 0F4B     		ldr	r3, .L5+16
  87 0016 1880     		strh	r0, [r3]
 145:Generated_Source\PSoC4/BLE_1.c ****         cyBle_connectionParameters.ownAddrType = cyBle_discoveryInfo.ownAddrType;
  88              		.loc 1 145 0
  89 0018 8888     		ldrh	r0, [r1, #4]
  90 001a 5880     		strh	r0, [r3, #2]
 146:Generated_Source\PSoC4/BLE_1.c ****         cyBle_connectionParameters.initiatorFilterPolicy = cyBle_discoveryInfo.scanFilterPolicy;
  91              		.loc 1 146 0
  92 001c 8879     		ldrb	r0, [r1, #6]
  93 001e 1873     		strb	r0, [r3, #12]
 147:Generated_Source\PSoC4/BLE_1.c ****         cyBle_connectionParameters.connIntvMin = CYBLE_GAPC_CONNECTION_INTERVAL_MIN;
  94              		.loc 1 147 0
  95 0020 C979     		ldrb	r1, [r1, #7]
  96 0022 1971     		strb	r1, [r3, #4]
 148:Generated_Source\PSoC4/BLE_1.c ****         cyBle_connectionParameters.connIntvMax = CYBLE_GAPC_CONNECTION_INTERVAL_MAX;
  97              		.loc 1 148 0
  98 0024 0621     		mov	r1, #6
ARM GAS  C:\Users\Harsha\AppData\Local\Temp\ccoVwJKe.s 			page 8


  99 0026 D981     		strh	r1, [r3, #14]
 149:Generated_Source\PSoC4/BLE_1.c ****         cyBle_connectionParameters.connLatency = CYBLE_GAPC_CONNECTION_SLAVE_LATENCY;
 100              		.loc 1 149 0
 101 0028 2231     		add	r1, r1, #34
 102 002a 1982     		strh	r1, [r3, #16]
 150:Generated_Source\PSoC4/BLE_1.c ****         cyBle_connectionParameters.supervisionTO = CYBLE_GAPC_CONNECTION_TIME_OUT;
 103              		.loc 1 150 0
 104 002c 5A82     		strh	r2, [r3, #18]
 151:Generated_Source\PSoC4/BLE_1.c ****         cyBle_connectionParameters.minCeLength = 0x0000u;
 105              		.loc 1 151 0
 106 002e 0A39     		sub	r1, r1, #10
 107 0030 9982     		strh	r1, [r3, #20]
 152:Generated_Source\PSoC4/BLE_1.c ****         cyBle_connectionParameters.maxCeLength = 0xFFFFu;
 108              		.loc 1 152 0
 109 0032 DA82     		strh	r2, [r3, #22]
 153:Generated_Source\PSoC4/BLE_1.c ****         
 110              		.loc 1 153 0
 111 0034 013A     		sub	r2, r2, #1
 112 0036 1A83     		strh	r2, [r3, #24]
 155:Generated_Source\PSoC4/BLE_1.c ****     #endif /* CYBLE_GAP_ROLE_CENTRAL */
 113              		.loc 1 155 0
 114 0038 074B     		ldr	r3, .L5+20
 115 003a 1980     		strh	r1, [r3]
 158:Generated_Source\PSoC4/BLE_1.c **** 
 116              		.loc 1 158 0
 117 003c FFF7FEFF 		bl	CyBle_ServiceInit
 118              	.LVL1:
 165:Generated_Source\PSoC4/BLE_1.c **** 
 119              		.loc 1 165 0
 120              		@ sp needed
 121 0040 08BD     		pop	{r3, pc}
 122              	.L6:
 123 0042 C046     		.align	2
 124              	.L5:
 125 0044 00000000 		.word	cyBle_eventHandlerFlag
 126 0048 00000000 		.word	cyBle_busyStatus
 127 004c 00000000 		.word	cyBle_scanningIntervalType
 128 0050 00000000 		.word	.LANCHOR0
 129 0054 00000000 		.word	cyBle_connectionParameters
 130 0058 00000000 		.word	cyBle_connectingTimeout
 131              		.cfi_endproc
 132              	.LFE2:
 133              		.size	CyBle_Init, .-CyBle_Init
 134              		.section	.text.CyBle_Start,"ax",%progbits
 135              		.align	2
 136              		.global	CyBle_Start
 137              		.code	16
 138              		.thumb_func
 139              		.type	CyBle_Start, %function
 140              	CyBle_Start:
 141              	.LFB4:
 293:Generated_Source\PSoC4/BLE_1.c **** 
 294:Generated_Source\PSoC4/BLE_1.c **** 
 295:Generated_Source\PSoC4/BLE_1.c **** /******************************************************************************
 296:Generated_Source\PSoC4/BLE_1.c **** * Function Name: CyBle_Start
 297:Generated_Source\PSoC4/BLE_1.c **** ***************************************************************************//**
 298:Generated_Source\PSoC4/BLE_1.c **** * 
ARM GAS  C:\Users\Harsha\AppData\Local\Temp\ccoVwJKe.s 			page 9


 299:Generated_Source\PSoC4/BLE_1.c **** *  This function initializes the BLE Stack, which consists of the BLE Stack 
 300:Generated_Source\PSoC4/BLE_1.c **** *  Manager, BLE Controller, and BLE Host modules. It takes care of initializing
 301:Generated_Source\PSoC4/BLE_1.c **** *  the Profile layer, schedulers, Timer and other platform related
 302:Generated_Source\PSoC4/BLE_1.c **** *  resources required for the BLE component. It also registers the callback 
 303:Generated_Source\PSoC4/BLE_1.c **** *  function for BLE events that will be registered in the BLE stack.
 304:Generated_Source\PSoC4/BLE_1.c **** * 
 305:Generated_Source\PSoC4/BLE_1.c **** *  Note that this function does not reset the BLE Stack.
 306:Generated_Source\PSoC4/BLE_1.c **** * 
 307:Generated_Source\PSoC4/BLE_1.c **** *  For HCI-Mode of operation, this function will not initialize the BLE Host 
 308:Generated_Source\PSoC4/BLE_1.c **** *  module.
 309:Generated_Source\PSoC4/BLE_1.c **** * 
 310:Generated_Source\PSoC4/BLE_1.c **** *  Calling this function results in the generation of CYBLE_EVT_STACK_ON event
 311:Generated_Source\PSoC4/BLE_1.c **** *  on successful initialization of the BLE Stack.
 312:Generated_Source\PSoC4/BLE_1.c **** * 
 313:Generated_Source\PSoC4/BLE_1.c **** *  \param callbackFunc: Event callback function to receive events from BLE stack.
 314:Generated_Source\PSoC4/BLE_1.c **** *   CYBLE_CALLBACK_T is a function pointer type.
 315:Generated_Source\PSoC4/BLE_1.c **** * 
 316:Generated_Source\PSoC4/BLE_1.c **** * \return
 317:Generated_Source\PSoC4/BLE_1.c **** *  CYBLE_API_RESULT_T : Return value indicates if the function succeeded or 
 318:Generated_Source\PSoC4/BLE_1.c **** *  failed. Following are the possible error codes.
 319:Generated_Source\PSoC4/BLE_1.c **** * 
 320:Generated_Source\PSoC4/BLE_1.c **** *   <table>
 321:Generated_Source\PSoC4/BLE_1.c **** *  	  <tr>
 322:Generated_Source\PSoC4/BLE_1.c **** *       <th>Error codes</th>
 323:Generated_Source\PSoC4/BLE_1.c **** *       <th>Description</th>
 324:Generated_Source\PSoC4/BLE_1.c **** *     </tr>
 325:Generated_Source\PSoC4/BLE_1.c **** *     <tr>
 326:Generated_Source\PSoC4/BLE_1.c **** *       <td>CYBLE_ERROR_OK</td>
 327:Generated_Source\PSoC4/BLE_1.c **** *       <td>On successful operation.</td>
 328:Generated_Source\PSoC4/BLE_1.c **** *     </tr>
 329:Generated_Source\PSoC4/BLE_1.c **** *     <tr>
 330:Generated_Source\PSoC4/BLE_1.c **** *       <td>CYBLE_ERROR_INVALID_PARAMETER</td>
 331:Generated_Source\PSoC4/BLE_1.c **** *       <td>On passing a NULL pointer to the function when the BLE stack is not built in HCI mode. 
 332:Generated_Source\PSoC4/BLE_1.c **** *			CYBLE_ERROR_INVALID_PARAMETER is never returned in HCI mode.</td>
 333:Generated_Source\PSoC4/BLE_1.c **** *     </tr>
 334:Generated_Source\PSoC4/BLE_1.c **** *     <tr>
 335:Generated_Source\PSoC4/BLE_1.c **** *       <td>CYBLE_ERROR_REPEATED_ATTEMPTS</td>
 336:Generated_Source\PSoC4/BLE_1.c **** *       <td>On invoking this function more than once without calling CyBle_Shutdown() 
 337:Generated_Source\PSoC4/BLE_1.c **** *           function between calls to this function.</td>
 338:Generated_Source\PSoC4/BLE_1.c **** *     </tr>
 339:Generated_Source\PSoC4/BLE_1.c **** *     <tr>
 340:Generated_Source\PSoC4/BLE_1.c **** *       <td>CYBLE_ERROR_MEMORY_ALLOCATION_FAILED</td>
 341:Generated_Source\PSoC4/BLE_1.c **** *       <td>There is insufficient memory available.</td>
 342:Generated_Source\PSoC4/BLE_1.c **** *     </tr>
 343:Generated_Source\PSoC4/BLE_1.c **** *   </table>
 344:Generated_Source\PSoC4/BLE_1.c **** * 
 345:Generated_Source\PSoC4/BLE_1.c **** *  \globalvars
 346:Generated_Source\PSoC4/BLE_1.c **** *   The CyBle_initVar variable is used to indicate initial
 347:Generated_Source\PSoC4/BLE_1.c **** *   configuration of this component. The variable is initialized to zero (0u)
 348:Generated_Source\PSoC4/BLE_1.c **** *   and set to one (1u) the first time CyBle_Start() is called. This
 349:Generated_Source\PSoC4/BLE_1.c **** *   allows for component initialization without re-initialization in all
 350:Generated_Source\PSoC4/BLE_1.c **** *   subsequent calls to the CyBle_Start() routine.
 351:Generated_Source\PSoC4/BLE_1.c **** * 
 352:Generated_Source\PSoC4/BLE_1.c **** ******************************************************************************/
 353:Generated_Source\PSoC4/BLE_1.c **** CYBLE_API_RESULT_T CyBle_Start(CYBLE_CALLBACK_T callbackFunc)
 354:Generated_Source\PSoC4/BLE_1.c **** {
 142              		.loc 1 354 0
ARM GAS  C:\Users\Harsha\AppData\Local\Temp\ccoVwJKe.s 			page 10


 143              		.cfi_startproc
 144              	.LVL2:
 145 0000 10B5     		push	{r4, lr}
 146              		.cfi_def_cfa_offset 8
 147              		.cfi_offset 4, -8
 148              		.cfi_offset 14, -4
 149 0002 8AB0     		sub	sp, sp, #40
 150              		.cfi_def_cfa_offset 48
 151 0004 041C     		mov	r4, r0
 152              	.LVL3:
 355:Generated_Source\PSoC4/BLE_1.c ****     CYBLE_API_RESULT_T apiResult = CYBLE_ERROR_OK;
 356:Generated_Source\PSoC4/BLE_1.c ****     
 357:Generated_Source\PSoC4/BLE_1.c ****     #if(CYBLE_MODE_PROFILE)
 358:Generated_Source\PSoC4/BLE_1.c ****     
 359:Generated_Source\PSoC4/BLE_1.c ****     CYBLE_STK_APP_DATA_BUFF_T cyBle_stackDataBuff[CYBLE_STACK_BUF_COUNT] = 
 153              		.loc 1 359 0
 154 0006 04A8     		add	r0, sp, #16
 155              	.LVL4:
 156 0008 1749     		ldr	r1, .L11
 157 000a 1822     		mov	r2, #24
 158 000c FFF7FEFF 		bl	memcpy
 159              	.LVL5:
 360:Generated_Source\PSoC4/BLE_1.c ****     {
 361:Generated_Source\PSoC4/BLE_1.c ****         {CYBLE_GATT_MTU_PLUS_L2CAP_MEM_EXT, CYBLE_GATT_MTU_BUF_COUNT},
 362:Generated_Source\PSoC4/BLE_1.c ****         {CYBLE_GATT_MAX_ATTR_LEN_PLUS_L2CAP_MEM_EXT, 1u},
 363:Generated_Source\PSoC4/BLE_1.c ****         {CYBLE_L2CAP_PSM_PLUS_L2CAP_MEM_EXT, CYBLE_L2CAP_PSM_COUNT},
 364:Generated_Source\PSoC4/BLE_1.c ****         {CYBLE_L2CAP_CBFC_PLUS_L2CAP_MEM_EXT, CYBLE_L2CAP_LOGICAL_CHANNEL_COUNT},
 365:Generated_Source\PSoC4/BLE_1.c ****         {CYBLE_L2CAP_MTU_PLUS_L2CAP_MEM_EXT, CYBLE_L2CAP_LOGICAL_CHANNEL_COUNT},
 366:Generated_Source\PSoC4/BLE_1.c ****         {CYBLE_L2CAP_MPS_PLUS_L2CAP_MEM_EXT, CYBLE_L2CAP_LOGICAL_CHANNEL_COUNT * (CYBLE_L2CAP_MTU/C
 367:Generated_Source\PSoC4/BLE_1.c ****     }; 
 368:Generated_Source\PSoC4/BLE_1.c **** 
 369:Generated_Source\PSoC4/BLE_1.c ****     #endif /* CYBLE_MODE_PROFILE */
 370:Generated_Source\PSoC4/BLE_1.c ****     
 371:Generated_Source\PSoC4/BLE_1.c ****     /* If not initialized then initialize all the required hardware and software */
 372:Generated_Source\PSoC4/BLE_1.c ****     if(cyBle_initVar == 0u)
 160              		.loc 1 372 0
 161 0010 164B     		ldr	r3, .L11+4
 162 0012 1B78     		ldrb	r3, [r3]
 163 0014 002B     		cmp	r3, #0
 164 0016 04D1     		bne	.L8
 373:Generated_Source\PSoC4/BLE_1.c ****     {
 374:Generated_Source\PSoC4/BLE_1.c ****         CyBle_Init();
 165              		.loc 1 374 0
 166 0018 FFF7FEFF 		bl	CyBle_Init
 167              	.LVL6:
 375:Generated_Source\PSoC4/BLE_1.c ****         cyBle_initVar = 1u;
 168              		.loc 1 375 0
 169 001c 0122     		mov	r2, #1
 170 001e 134B     		ldr	r3, .L11+4
 171 0020 1A70     		strb	r2, [r3]
 172              	.L8:
 376:Generated_Source\PSoC4/BLE_1.c ****     }
 377:Generated_Source\PSoC4/BLE_1.c ****     
 378:Generated_Source\PSoC4/BLE_1.c ****     if(callbackFunc != NULL)
 173              		.loc 1 378 0
 174 0022 002C     		cmp	r4, #0
 175 0024 1CD0     		beq	.L10
ARM GAS  C:\Users\Harsha\AppData\Local\Temp\ccoVwJKe.s 			page 11


 379:Generated_Source\PSoC4/BLE_1.c ****     {
 380:Generated_Source\PSoC4/BLE_1.c ****     #if(CYBLE_SHARING_MODE_EXPORT)
 381:Generated_Source\PSoC4/BLE_1.c ****         if(cyBle_stackMemoryRam == NULL)
 382:Generated_Source\PSoC4/BLE_1.c ****         {
 383:Generated_Source\PSoC4/BLE_1.c ****             cyBle_stackMemoryRam = (uint8 *)malloc(CYBLE_STACK_RAM_SIZE);
 384:Generated_Source\PSoC4/BLE_1.c ****             if(cyBle_stackMemoryRam == NULL)
 385:Generated_Source\PSoC4/BLE_1.c ****             {
 386:Generated_Source\PSoC4/BLE_1.c ****                 apiResult = CYBLE_ERROR_MEMORY_ALLOCATION_FAILED;
 387:Generated_Source\PSoC4/BLE_1.c ****             } 
 388:Generated_Source\PSoC4/BLE_1.c ****         }
 389:Generated_Source\PSoC4/BLE_1.c ****     #endif /* CYBLE_SHARING_MODE_EXPORT */
 390:Generated_Source\PSoC4/BLE_1.c ****         if(apiResult == CYBLE_ERROR_OK)
 391:Generated_Source\PSoC4/BLE_1.c ****         {
 392:Generated_Source\PSoC4/BLE_1.c ****         #if(CYBLE_MODE_PROFILE)
 393:Generated_Source\PSoC4/BLE_1.c ****             apiResult = CyBle_StackInit(&CyBle_EventHandler, cyBle_stackMemoryRam, CYBLE_STACK_RAM_
 176              		.loc 1 393 0
 177 0026 0623     		mov	r3, #6
 178 0028 0093     		str	r3, [sp]
 179 002a 114B     		ldr	r3, .L11+8
 180 002c 0193     		str	r3, [sp, #4]
 181 002e 6E23     		mov	r3, #110
 182 0030 FF33     		add	r3, r3, #255
 183 0032 0293     		str	r3, [sp, #8]
 184 0034 0F48     		ldr	r0, .L11+12
 185 0036 1049     		ldr	r1, .L11+16
 186 0038 104A     		ldr	r2, .L11+20
 187 003a 04AB     		add	r3, sp, #16
 188 003c FFF7FEFF 		bl	CyBle_StackInit
 189              	.LVL7:
 394:Generated_Source\PSoC4/BLE_1.c ****                 cyBle_stackDataBuff, CYBLE_STACK_BUF_COUNT, cyBle_flashStorage.stackFlashptr, CYBLE
 395:Generated_Source\PSoC4/BLE_1.c ****         #else
 396:Generated_Source\PSoC4/BLE_1.c ****             apiResult = CyBle_StackInit(&CyBle_EventHandler, cyBle_stackMemoryRam, CYBLE_STACK_RAM_
 397:Generated_Source\PSoC4/BLE_1.c ****                 NULL, 0u, NULL, 0u);
 398:Generated_Source\PSoC4/BLE_1.c ****         #endif /* CYBLE_MODE_PROFILE */
 399:Generated_Source\PSoC4/BLE_1.c **** 
 400:Generated_Source\PSoC4/BLE_1.c ****             CyBle_ApplCallback = callbackFunc;
 190              		.loc 1 400 0
 191 0040 0F4B     		ldr	r3, .L11+24
 192 0042 1C60     		str	r4, [r3]
 401:Generated_Source\PSoC4/BLE_1.c ****             
 402:Generated_Source\PSoC4/BLE_1.c **** 
 403:Generated_Source\PSoC4/BLE_1.c ****             if(apiResult == CYBLE_ERROR_OK)
 193              		.loc 1 403 0
 194 0044 0028     		cmp	r0, #0
 195 0046 0CD1     		bne	.L9
 404:Generated_Source\PSoC4/BLE_1.c ****             {
 405:Generated_Source\PSoC4/BLE_1.c ****                 CyBle_SetState(CYBLE_STATE_INITIALIZING);
 196              		.loc 1 405 0
 197 0048 0122     		mov	r2, #1
 198 004a 0E4B     		ldr	r3, .L11+28
 199 004c 1A70     		strb	r2, [r3]
 406:Generated_Source\PSoC4/BLE_1.c ****                 
 407:Generated_Source\PSoC4/BLE_1.c ****             #if (CYBLE_GATT_ROLE_CLIENT)
 408:Generated_Source\PSoC4/BLE_1.c ****                 CyBle_SetClientState(CYBLE_CLIENT_STATE_DISCONNECTED);
 200              		.loc 1 408 0
 201 004e 0732     		add	r2, r2, #7
 202 0050 0D4B     		ldr	r3, .L11+32
ARM GAS  C:\Users\Harsha\AppData\Local\Temp\ccoVwJKe.s 			page 12


 203 0052 1A70     		strb	r2, [r3]
 409:Generated_Source\PSoC4/BLE_1.c ****             #endif /* CYBLE_GATT_ROLE_CLIENT */
 410:Generated_Source\PSoC4/BLE_1.c ****                 
 411:Generated_Source\PSoC4/BLE_1.c ****             #if(CYBLE_GATT_ROLE_SERVER)
 412:Generated_Source\PSoC4/BLE_1.c ****                 apiResult = CyBle_GattsDbRegister(cyBle_gattDB, CYBLE_GATT_DB_INDEX_COUNT, CYBLE_GA
 204              		.loc 1 412 0
 205 0054 0D48     		ldr	r0, .L11+36
 206              	.LVL8:
 207 0056 0F21     		mov	r1, #15
 208 0058 0232     		add	r2, r2, #2
 209 005a FFF7FEFF 		bl	CyBle_GattsDbRegister
 210              	.LVL9:
 211 005e 00E0     		b	.L9
 212              	.LVL10:
 213              	.L10:
 413:Generated_Source\PSoC4/BLE_1.c ****             #endif /* CYBLE_GATT_ROLE_SERVER */
 414:Generated_Source\PSoC4/BLE_1.c ****             }
 415:Generated_Source\PSoC4/BLE_1.c ****         }
 416:Generated_Source\PSoC4/BLE_1.c ****     }
 417:Generated_Source\PSoC4/BLE_1.c ****     else
 418:Generated_Source\PSoC4/BLE_1.c ****     {
 419:Generated_Source\PSoC4/BLE_1.c ****         apiResult = CYBLE_ERROR_INVALID_PARAMETER;
 214              		.loc 1 419 0
 215 0060 0120     		mov	r0, #1
 216              	.LVL11:
 217              	.L9:
 420:Generated_Source\PSoC4/BLE_1.c ****     }
 421:Generated_Source\PSoC4/BLE_1.c **** 
 422:Generated_Source\PSoC4/BLE_1.c ****     return (apiResult);
 423:Generated_Source\PSoC4/BLE_1.c **** }
 218              		.loc 1 423 0
 219 0062 0AB0     		add	sp, sp, #40
 220              		@ sp needed
 221              	.LVL12:
 222 0064 10BD     		pop	{r4, pc}
 223              	.L12:
 224 0066 C046     		.align	2
 225              	.L11:
 226 0068 00000000 		.word	.LANCHOR1
 227 006c 00000000 		.word	.LANCHOR2
 228 0070 00000000 		.word	cyBle_flashStorage
 229 0074 00000000 		.word	CyBle_EventHandler
 230 0078 00000000 		.word	cyBle_stackMemoryRam
 231 007c C40A0000 		.word	2756
 232 0080 00000000 		.word	CyBle_ApplCallback
 233 0084 00000000 		.word	cyBle_state
 234 0088 00000000 		.word	cyBle_clientState
 235 008c 00000000 		.word	cyBle_gattDB
 236              		.cfi_endproc
 237              	.LFE4:
 238              		.size	CyBle_Start, .-CyBle_Start
 239              		.section	.text.CyBle_Stop,"ax",%progbits
 240              		.align	2
 241              		.global	CyBle_Stop
 242              		.code	16
 243              		.thumb_func
 244              		.type	CyBle_Stop, %function
ARM GAS  C:\Users\Harsha\AppData\Local\Temp\ccoVwJKe.s 			page 13


 245              	CyBle_Stop:
 246              	.LFB5:
 424:Generated_Source\PSoC4/BLE_1.c **** 
 425:Generated_Source\PSoC4/BLE_1.c **** 
 426:Generated_Source\PSoC4/BLE_1.c **** /******************************************************************************
 427:Generated_Source\PSoC4/BLE_1.c **** * Function Name: CyBle_Stop
 428:Generated_Source\PSoC4/BLE_1.c **** ***************************************************************************//**
 429:Generated_Source\PSoC4/BLE_1.c **** * 
 430:Generated_Source\PSoC4/BLE_1.c **** *  This function stops any ongoing operation in the BLE Stack and forces the 
 431:Generated_Source\PSoC4/BLE_1.c **** *  BLE Stack to shut down. The only function that can be called after calling
 432:Generated_Source\PSoC4/BLE_1.c **** *  this function is CyBle_Start(). 
 433:Generated_Source\PSoC4/BLE_1.c **** * 
 434:Generated_Source\PSoC4/BLE_1.c **** * \return
 435:Generated_Source\PSoC4/BLE_1.c **** *  None
 436:Generated_Source\PSoC4/BLE_1.c **** * 
 437:Generated_Source\PSoC4/BLE_1.c **** ******************************************************************************/
 438:Generated_Source\PSoC4/BLE_1.c **** void CyBle_Stop(void)
 439:Generated_Source\PSoC4/BLE_1.c **** {
 247              		.loc 1 439 0
 248              		.cfi_startproc
 249 0000 08B5     		push	{r3, lr}
 250              		.cfi_def_cfa_offset 8
 251              		.cfi_offset 3, -8
 252              		.cfi_offset 14, -4
 440:Generated_Source\PSoC4/BLE_1.c ****     CyBle_Shutdown();                         /* Stop all ongoing activities */
 253              		.loc 1 440 0
 254 0002 FFF7FEFF 		bl	CyBle_Shutdown
 255              	.LVL13:
 441:Generated_Source\PSoC4/BLE_1.c ****     CyBle_SetState(CYBLE_STATE_STOPPED);
 256              		.loc 1 441 0
 257 0006 0022     		mov	r2, #0
 258 0008 014B     		ldr	r3, .L14
 259 000a 1A70     		strb	r2, [r3]
 442:Generated_Source\PSoC4/BLE_1.c ****     #if(CYBLE_SHARING_MODE_EXPORT)
 443:Generated_Source\PSoC4/BLE_1.c ****         if(cyBle_stackMemoryRam != NULL)
 444:Generated_Source\PSoC4/BLE_1.c ****         {
 445:Generated_Source\PSoC4/BLE_1.c ****             free(cyBle_stackMemoryRam);
 446:Generated_Source\PSoC4/BLE_1.c ****         }
 447:Generated_Source\PSoC4/BLE_1.c ****     #endif /* CYBLE_SHARING_MODE_EXPORT */
 448:Generated_Source\PSoC4/BLE_1.c **** }
 260              		.loc 1 448 0
 261              		@ sp needed
 262 000c 08BD     		pop	{r3, pc}
 263              	.L15:
 264 000e C046     		.align	2
 265              	.L14:
 266 0010 00000000 		.word	cyBle_state
 267              		.cfi_endproc
 268              	.LFE5:
 269              		.size	CyBle_Stop, .-CyBle_Stop
 270              		.section	.text.CyBle_GapcStartScan,"ax",%progbits
 271              		.align	2
 272              		.global	CyBle_GapcStartScan
 273              		.code	16
 274              		.thumb_func
 275              		.type	CyBle_GapcStartScan, %function
 276              	CyBle_GapcStartScan:
ARM GAS  C:\Users\Harsha\AppData\Local\Temp\ccoVwJKe.s 			page 14


 277              	.LFB6:
 449:Generated_Source\PSoC4/BLE_1.c **** 
 450:Generated_Source\PSoC4/BLE_1.c **** 
 451:Generated_Source\PSoC4/BLE_1.c **** #if((CYBLE_GAP_ROLE_PERIPHERAL || CYBLE_GAP_ROLE_CENTRAL) && (CYBLE_BONDING_REQUIREMENT == CYBLE_BO
 452:Generated_Source\PSoC4/BLE_1.c **** 
 453:Generated_Source\PSoC4/BLE_1.c ****     
 454:Generated_Source\PSoC4/BLE_1.c **** /******************************************************************************
 455:Generated_Source\PSoC4/BLE_1.c **** * Function Name: CyBle_StoreBondingData
 456:Generated_Source\PSoC4/BLE_1.c **** ***************************************************************************//**
 457:Generated_Source\PSoC4/BLE_1.c **** * 
 458:Generated_Source\PSoC4/BLE_1.c **** *  This function writes the new bonding data from RAM to the dedicated Flash 
 459:Generated_Source\PSoC4/BLE_1.c **** *  location as defined by the component. It performs data comparing between RAM
 460:Generated_Source\PSoC4/BLE_1.c **** *  and Flash before writing to Flash. If there is no change between RAM and Flash
 461:Generated_Source\PSoC4/BLE_1.c **** *  data, then no write is performed. It writes only one flash row in one call.
 462:Generated_Source\PSoC4/BLE_1.c **** *  Application should keep calling this function till API return CYBLE_ERROR_OK. 
 463:Generated_Source\PSoC4/BLE_1.c **** *  This function is available only when Bonding requirement is selected in
 464:Generated_Source\PSoC4/BLE_1.c **** *  Security settings.    
 465:Generated_Source\PSoC4/BLE_1.c **** * 
 466:Generated_Source\PSoC4/BLE_1.c **** *  \param isForceWrite:  If value is set to 0, then stack will check if flash write 
 467:Generated_Source\PSoC4/BLE_1.c **** *                 is permissible. 
 468:Generated_Source\PSoC4/BLE_1.c **** *  
 469:Generated_Source\PSoC4/BLE_1.c **** * \return
 470:Generated_Source\PSoC4/BLE_1.c **** *  Return value is of type CYBLE_API_RESULT_T.
 471:Generated_Source\PSoC4/BLE_1.c **** *
 472:Generated_Source\PSoC4/BLE_1.c **** *   Errors codes                         | Description
 473:Generated_Source\PSoC4/BLE_1.c **** *   ----------------------------------   | ------------------------------------
 474:Generated_Source\PSoC4/BLE_1.c **** *   CYBLE_ERROR_OK                       | On successful operation
 475:Generated_Source\PSoC4/BLE_1.c **** *   CYBLE_ERROR_FLASH_WRITE_NOT_PERMITED | Flash Write is not complete
 476:Generated_Source\PSoC4/BLE_1.c **** *    
 477:Generated_Source\PSoC4/BLE_1.c **** *  \sideeffect
 478:Generated_Source\PSoC4/BLE_1.c **** *   For BLE devices with 128K of Flash memory this API will automatically 
 479:Generated_Source\PSoC4/BLE_1.c **** *   modify the clock settings for the device.
 480:Generated_Source\PSoC4/BLE_1.c **** *   Writing to flash requires changes to be done to the IMO (set to 48 MHz)
 481:Generated_Source\PSoC4/BLE_1.c **** *   and HFCLK (source set to IMO) settings. The configuration is restored before
 482:Generated_Source\PSoC4/BLE_1.c **** *   returning. This will impact the operation of most of the hardware in the
 483:Generated_Source\PSoC4/BLE_1.c **** *   device.
 484:Generated_Source\PSoC4/BLE_1.c **** * 
 485:Generated_Source\PSoC4/BLE_1.c **** *  \globalvars
 486:Generated_Source\PSoC4/BLE_1.c **** *   The BLE_1_pendingFlashWrite variable is used to detect status
 487:Generated_Source\PSoC4/BLE_1.c **** *   of pending write to flash operation for stack data and CCCD.
 488:Generated_Source\PSoC4/BLE_1.c **** *   This API automatically clears pending bits after write operation complete.
 489:Generated_Source\PSoC4/BLE_1.c **** *     
 490:Generated_Source\PSoC4/BLE_1.c **** ******************************************************************************/
 491:Generated_Source\PSoC4/BLE_1.c **** CYBLE_API_RESULT_T CyBle_StoreBondingData(uint8 isForceWrite)
 492:Generated_Source\PSoC4/BLE_1.c **** {
 493:Generated_Source\PSoC4/BLE_1.c ****     CYBLE_API_RESULT_T apiResult = CYBLE_ERROR_OK;
 494:Generated_Source\PSoC4/BLE_1.c ****     
 495:Generated_Source\PSoC4/BLE_1.c ****     /* Store Stack data */
 496:Generated_Source\PSoC4/BLE_1.c ****     if((cyBle_pendingFlashWrite & CYBLE_PENDING_STACK_FLASH_WRITE_BIT) != 0u)
 497:Generated_Source\PSoC4/BLE_1.c ****     {
 498:Generated_Source\PSoC4/BLE_1.c ****         apiResult = CyBle_StoreStackData(isForceWrite);
 499:Generated_Source\PSoC4/BLE_1.c ****         if(apiResult == CYBLE_ERROR_OK)
 500:Generated_Source\PSoC4/BLE_1.c ****         {
 501:Generated_Source\PSoC4/BLE_1.c ****             cyBle_pendingFlashWrite &= (uint8)~CYBLE_PENDING_STACK_FLASH_WRITE_BIT;
 502:Generated_Source\PSoC4/BLE_1.c ****             /* Change apiResult if there are more pending data to store */
 503:Generated_Source\PSoC4/BLE_1.c ****             if((cyBle_pendingFlashWrite & CYBLE_PENDING_CCCD_FLASH_WRITE_BIT) != 0u)
 504:Generated_Source\PSoC4/BLE_1.c ****             {
ARM GAS  C:\Users\Harsha\AppData\Local\Temp\ccoVwJKe.s 			page 15


 505:Generated_Source\PSoC4/BLE_1.c ****                 apiResult = CYBLE_ERROR_FLASH_WRITE_NOT_PERMITED;
 506:Generated_Source\PSoC4/BLE_1.c ****             }
 507:Generated_Source\PSoC4/BLE_1.c ****         }
 508:Generated_Source\PSoC4/BLE_1.c ****     }
 509:Generated_Source\PSoC4/BLE_1.c **** #if(CYBLE_GATT_DB_CCCD_COUNT != 0u)
 510:Generated_Source\PSoC4/BLE_1.c ****     /* Store CCCD values */
 511:Generated_Source\PSoC4/BLE_1.c ****     if( ((apiResult == CYBLE_ERROR_OK) || (isForceWrite != 0u)) && 
 512:Generated_Source\PSoC4/BLE_1.c ****         ((cyBle_pendingFlashWrite & CYBLE_PENDING_CCCD_FLASH_WRITE_BIT) != 0u) &&
 513:Generated_Source\PSoC4/BLE_1.c ****         (cyBle_connHandle.bdHandle <= CYBLE_GAP_MAX_BONDED_DEVICE))
 514:Generated_Source\PSoC4/BLE_1.c ****     {
 515:Generated_Source\PSoC4/BLE_1.c ****         apiResult = CyBle_StoreAppData(cyBle_attValuesCCCD, cyBle_flashStorage.attValuesCCCDFlashMe
 516:Generated_Source\PSoC4/BLE_1.c ****                                        CYBLE_GATT_DB_CCCD_COUNT, isForceWrite);
 517:Generated_Source\PSoC4/BLE_1.c ****         if(apiResult == CYBLE_ERROR_OK)
 518:Generated_Source\PSoC4/BLE_1.c ****         {
 519:Generated_Source\PSoC4/BLE_1.c ****             cyBle_pendingFlashWrite &= (uint8)~CYBLE_PENDING_CCCD_FLASH_WRITE_BIT;
 520:Generated_Source\PSoC4/BLE_1.c ****         }
 521:Generated_Source\PSoC4/BLE_1.c ****     }
 522:Generated_Source\PSoC4/BLE_1.c **** #endif /* CYBLE_GATT_DB_CCCD_COUNT != 0u */
 523:Generated_Source\PSoC4/BLE_1.c ****     return(apiResult);
 524:Generated_Source\PSoC4/BLE_1.c **** }
 525:Generated_Source\PSoC4/BLE_1.c **** 
 526:Generated_Source\PSoC4/BLE_1.c **** 
 527:Generated_Source\PSoC4/BLE_1.c **** #endif /* (CYBLE_GAP_ROLE_PERIPHERAL || CYBLE_GAP_ROLE_CENTRAL) && (CYBLE_BONDING_REQUIREMENT == CY
 528:Generated_Source\PSoC4/BLE_1.c **** 
 529:Generated_Source\PSoC4/BLE_1.c **** 
 530:Generated_Source\PSoC4/BLE_1.c **** #if(CYBLE_GAP_ROLE_PERIPHERAL || CYBLE_GAP_ROLE_BROADCASTER)
 531:Generated_Source\PSoC4/BLE_1.c **** 
 532:Generated_Source\PSoC4/BLE_1.c ****     /******************************************************************************
 533:Generated_Source\PSoC4/BLE_1.c ****     *  Function Name: CyBle_GappStartAdvertisement
 534:Generated_Source\PSoC4/BLE_1.c ****     ***************************************************************************//**
 535:Generated_Source\PSoC4/BLE_1.c ****     *     
 536:Generated_Source\PSoC4/BLE_1.c ****     *  This function is used to start the advertisement using the advertisement data 
 537:Generated_Source\PSoC4/BLE_1.c ****     *  set in the component customizer's GUI. After invoking this API, the device 
 538:Generated_Source\PSoC4/BLE_1.c ****     *  will be available for connection by the devices configured for GAP central 
 539:Generated_Source\PSoC4/BLE_1.c ****     *  role. It is only included if the device is configured for GAP Peripheral or 
 540:Generated_Source\PSoC4/BLE_1.c ****     *  GAP Peripheral + Central role.
 541:Generated_Source\PSoC4/BLE_1.c ****     *  
 542:Generated_Source\PSoC4/BLE_1.c ****     *  On start of advertisement, GAP Peripheral receives the
 543:Generated_Source\PSoC4/BLE_1.c ****     *  CYBLE_EVT_GAPP_ADVERTISEMENT_START_STOP event. The following events are 
 544:Generated_Source\PSoC4/BLE_1.c ****     *  possible on invoking this function:
 545:Generated_Source\PSoC4/BLE_1.c ****     *  
 546:Generated_Source\PSoC4/BLE_1.c ****     *  * CYBLE_EVT_GAP_DEVICE_CONNECTED: If the device connects to remote GAP 
 547:Generated_Source\PSoC4/BLE_1.c ****     *                                      Central device
 548:Generated_Source\PSoC4/BLE_1.c ****     *  * CYBLE_EVT_TIMEOUT: If no device in GAP Central mode connects to this 
 549:Generated_Source\PSoC4/BLE_1.c ****     *                       device within the specified timeout limit. Stack 
 550:Generated_Source\PSoC4/BLE_1.c ****     *                       automatically initiate stop advertising when Slow 
 551:Generated_Source\PSoC4/BLE_1.c ****     *                       advertising was initiated, or starts Slow advertising
 552:Generated_Source\PSoC4/BLE_1.c ****     *                       after Fast advertising timeout occur.
 553:Generated_Source\PSoC4/BLE_1.c ****     *  * CYBLE_EVT_GAPP_ADVERTISEMENT_START_STOP: If device started or stopped
 554:Generated_Source\PSoC4/BLE_1.c ****     *                                               advertising. Use CyBle_GetState()
 555:Generated_Source\PSoC4/BLE_1.c ****     *                                               to determine the state. Sequential 
 556:Generated_Source\PSoC4/BLE_1.c ****     *                                               advertising could be started when
 557:Generated_Source\PSoC4/BLE_1.c ****     *                                               CYBLE_STATE_DISCONNECTED state is
 558:Generated_Source\PSoC4/BLE_1.c ****     *                                               returned.
 559:Generated_Source\PSoC4/BLE_1.c ****     * 
 560:Generated_Source\PSoC4/BLE_1.c ****     *  \param uint8 advertisingIntervalType: Fast or slow advertising interval with timings
 561:Generated_Source\PSoC4/BLE_1.c ****     *                                 entered in Advertising settings section of the
ARM GAS  C:\Users\Harsha\AppData\Local\Temp\ccoVwJKe.s 			page 16


 562:Generated_Source\PSoC4/BLE_1.c ****     *                                 customizer.
 563:Generated_Source\PSoC4/BLE_1.c ****     *  * CYBLE_ADVERTISING_FAST   0x00u
 564:Generated_Source\PSoC4/BLE_1.c ****     *  * CYBLE_ADVERTISING_SLOW   0x01u
 565:Generated_Source\PSoC4/BLE_1.c ****     *  * CYBLE_ADVERTISING_CUSTOM 0x02u
 566:Generated_Source\PSoC4/BLE_1.c ****     * 
 567:Generated_Source\PSoC4/BLE_1.c ****     * \return
 568:Generated_Source\PSoC4/BLE_1.c ****     *  CYBLE_API_RESULT_T : Return value indicates if the function succeeded or
 569:Generated_Source\PSoC4/BLE_1.c ****     *  failed. Following are the possible error codes.
 570:Generated_Source\PSoC4/BLE_1.c ****     * 
 571:Generated_Source\PSoC4/BLE_1.c ****     *   Errors codes                      |  Description
 572:Generated_Source\PSoC4/BLE_1.c ****     *   --------------------------------- |  --------------------------------
 573:Generated_Source\PSoC4/BLE_1.c ****     *   CYBLE_ERROR_OK                    |  On successful operation.
 574:Generated_Source\PSoC4/BLE_1.c ****     *   CYBLE_ERROR_INVALID_PARAMETER     |  On passing an invalid parameter.
 575:Generated_Source\PSoC4/BLE_1.c ****     *   CYBLE_ERROR_INVALID_STATE         |  On calling this API not in Disconnected state.
 576:Generated_Source\PSoC4/BLE_1.c ****     *
 577:Generated_Source\PSoC4/BLE_1.c ****     * 
 578:Generated_Source\PSoC4/BLE_1.c ****     *******************************************************************************/
 579:Generated_Source\PSoC4/BLE_1.c ****     CYBLE_API_RESULT_T CyBle_GappStartAdvertisement(uint8 advertisingIntervalType)
 580:Generated_Source\PSoC4/BLE_1.c ****     {
 581:Generated_Source\PSoC4/BLE_1.c ****         CYBLE_API_RESULT_T apiResult;
 582:Generated_Source\PSoC4/BLE_1.c ****         
 583:Generated_Source\PSoC4/BLE_1.c ****         if(advertisingIntervalType > CYBLE_ADVERTISING_CUSTOM)
 584:Generated_Source\PSoC4/BLE_1.c ****         {
 585:Generated_Source\PSoC4/BLE_1.c ****             apiResult = CYBLE_ERROR_INVALID_PARAMETER;
 586:Generated_Source\PSoC4/BLE_1.c ****         }
 587:Generated_Source\PSoC4/BLE_1.c ****         else if((CYBLE_STATE_DISCONNECTED == CyBle_GetState()) && ((cyBle_eventHandlerFlag & CYBLE_
 588:Generated_Source\PSoC4/BLE_1.c ****         {   
 589:Generated_Source\PSoC4/BLE_1.c ****             if(advertisingIntervalType == CYBLE_ADVERTISING_FAST)
 590:Generated_Source\PSoC4/BLE_1.c ****             {
 591:Generated_Source\PSoC4/BLE_1.c ****                 cyBle_discoveryModeInfo.advTo = CYBLE_FAST_ADV_TIMEOUT;
 592:Generated_Source\PSoC4/BLE_1.c ****                 cyBle_discoveryModeInfo.advParam->advIntvMin = CYBLE_FAST_ADV_INT_MIN;
 593:Generated_Source\PSoC4/BLE_1.c ****                 cyBle_discoveryModeInfo.advParam->advIntvMax = CYBLE_FAST_ADV_INT_MAX;
 594:Generated_Source\PSoC4/BLE_1.c ****             }
 595:Generated_Source\PSoC4/BLE_1.c ****             else if(advertisingIntervalType == CYBLE_ADVERTISING_SLOW)
 596:Generated_Source\PSoC4/BLE_1.c ****             {
 597:Generated_Source\PSoC4/BLE_1.c ****                 cyBle_discoveryModeInfo.advTo = CYBLE_SLOW_ADV_TIMEOUT;
 598:Generated_Source\PSoC4/BLE_1.c ****                 cyBle_discoveryModeInfo.advParam->advIntvMin = CYBLE_SLOW_ADV_INT_MIN;
 599:Generated_Source\PSoC4/BLE_1.c ****                 cyBle_discoveryModeInfo.advParam->advIntvMax = CYBLE_SLOW_ADV_INT_MAX;
 600:Generated_Source\PSoC4/BLE_1.c ****             }       
 601:Generated_Source\PSoC4/BLE_1.c ****             else /* Do not update advertising intervals */
 602:Generated_Source\PSoC4/BLE_1.c ****             {
 603:Generated_Source\PSoC4/BLE_1.c ****             }
 604:Generated_Source\PSoC4/BLE_1.c ****             cyBle_advertisingIntervalType = advertisingIntervalType;
 605:Generated_Source\PSoC4/BLE_1.c ****             apiResult = CyBle_GappEnterDiscoveryMode(&cyBle_discoveryModeInfo);
 606:Generated_Source\PSoC4/BLE_1.c ****         
 607:Generated_Source\PSoC4/BLE_1.c ****             if(CYBLE_ERROR_OK == apiResult)
 608:Generated_Source\PSoC4/BLE_1.c ****             {
 609:Generated_Source\PSoC4/BLE_1.c ****                 cyBle_eventHandlerFlag |= CYBLE_START_FLAG;
 610:Generated_Source\PSoC4/BLE_1.c ****             }
 611:Generated_Source\PSoC4/BLE_1.c ****         }
 612:Generated_Source\PSoC4/BLE_1.c ****         else
 613:Generated_Source\PSoC4/BLE_1.c ****         {
 614:Generated_Source\PSoC4/BLE_1.c ****             apiResult = CYBLE_ERROR_INVALID_STATE;
 615:Generated_Source\PSoC4/BLE_1.c ****         }
 616:Generated_Source\PSoC4/BLE_1.c **** 
 617:Generated_Source\PSoC4/BLE_1.c ****         return (apiResult);
 618:Generated_Source\PSoC4/BLE_1.c ****     }
ARM GAS  C:\Users\Harsha\AppData\Local\Temp\ccoVwJKe.s 			page 17


 619:Generated_Source\PSoC4/BLE_1.c **** 
 620:Generated_Source\PSoC4/BLE_1.c ****     
 621:Generated_Source\PSoC4/BLE_1.c ****     /******************************************************************************
 622:Generated_Source\PSoC4/BLE_1.c ****     * Function Name: CyBle_GappStopAdvertisement
 623:Generated_Source\PSoC4/BLE_1.c ****     * *******************************************************************************
 624:Generated_Source\PSoC4/BLE_1.c ****     * 
 625:Generated_Source\PSoC4/BLE_1.c ****     *   This function can be used to exit from discovery mode. After the execution 
 626:Generated_Source\PSoC4/BLE_1.c ****     *   of this function, there will no longer be any advertisements. On stopping 
 627:Generated_Source\PSoC4/BLE_1.c ****     *   advertising, GAP Peripheral receives CYBLE_EVT_GAPP_ADVERTISEMENT_START_STOP
 628:Generated_Source\PSoC4/BLE_1.c ****     *   event. It is expected that the application layer tracks the function call 
 629:Generated_Source\PSoC4/BLE_1.c ****     *   performed before occurrence of this event as this event can occur on making 
 630:Generated_Source\PSoC4/BLE_1.c ****     *   a call to Cy_BleGappStartAdvertisement(), CyBle_GappEnterDiscoveryMode(), 
 631:Generated_Source\PSoC4/BLE_1.c ****     *   or CyBle_GappStartAdvertisement() functions as well.
 632:Generated_Source\PSoC4/BLE_1.c ****     *   
 633:Generated_Source\PSoC4/BLE_1.c ****     *   The following event occurs on invoking this function:
 634:Generated_Source\PSoC4/BLE_1.c ****     *   * CYBLE_EVT_GAPP_ADVERTISEMENT_START_STOP
 635:Generated_Source\PSoC4/BLE_1.c ****     * 
 636:Generated_Source\PSoC4/BLE_1.c ****     *  \return
 637:Generated_Source\PSoC4/BLE_1.c ****     *   None
 638:Generated_Source\PSoC4/BLE_1.c ****     * 
 639:Generated_Source\PSoC4/BLE_1.c ****     *******************************************************************************/
 640:Generated_Source\PSoC4/BLE_1.c ****     void CyBle_GappStopAdvertisement(void)
 641:Generated_Source\PSoC4/BLE_1.c ****     {
 642:Generated_Source\PSoC4/BLE_1.c ****         CyBle_GappExitDiscoveryMode();
 643:Generated_Source\PSoC4/BLE_1.c ****         cyBle_eventHandlerFlag |= CYBLE_STOP_FLAG;
 644:Generated_Source\PSoC4/BLE_1.c ****     }
 645:Generated_Source\PSoC4/BLE_1.c ****     
 646:Generated_Source\PSoC4/BLE_1.c ****     
 647:Generated_Source\PSoC4/BLE_1.c ****     /******************************************************************************
 648:Generated_Source\PSoC4/BLE_1.c ****     * Function Name: CyBle_ChangeAdDeviceAddress
 649:Generated_Source\PSoC4/BLE_1.c ****     * *******************************************************************************
 650:Generated_Source\PSoC4/BLE_1.c **** * 
 651:Generated_Source\PSoC4/BLE_1.c ****     *  This API is used to set the Bluetooth device address into the advertisement 
 652:Generated_Source\PSoC4/BLE_1.c ****     *  or scan response data structure.
 653:Generated_Source\PSoC4/BLE_1.c **** * 
 654:Generated_Source\PSoC4/BLE_1.c ****     *  \param bdAddr: Bluetooth Device address. The variable is of type CYBLE_GAP_BD_ADDR_T
 655:Generated_Source\PSoC4/BLE_1.c ****     *  \param uint8 dest: 0 - selects advertisement structure, not zero value selects scan 
 656:Generated_Source\PSoC4/BLE_1.c ****     *              response structure.
 657:Generated_Source\PSoC4/BLE_1.c **** * 
 658:Generated_Source\PSoC4/BLE_1.c ****     * \return
 659:Generated_Source\PSoC4/BLE_1.c ****     *  None
 660:Generated_Source\PSoC4/BLE_1.c **** *  
 661:Generated_Source\PSoC4/BLE_1.c ****     * ******************************************************************************/
 662:Generated_Source\PSoC4/BLE_1.c ****     void CyBle_ChangeAdDeviceAddress(const CYBLE_GAP_BD_ADDR_T* bdAddr, uint8 dest)
 663:Generated_Source\PSoC4/BLE_1.c ****     {
 664:Generated_Source\PSoC4/BLE_1.c ****         uint8 i;
 665:Generated_Source\PSoC4/BLE_1.c ****         uint8 *destBuffer = NULL;
 666:Generated_Source\PSoC4/BLE_1.c ****         
 667:Generated_Source\PSoC4/BLE_1.c ****         if(dest == 0u)      /* Destination - advertising structure */
 668:Generated_Source\PSoC4/BLE_1.c ****         {
 669:Generated_Source\PSoC4/BLE_1.c ****             #ifdef CYBLE_ADV_PKT_INDEX_BLUETOOTH_DEVICE_ADDRESS
 670:Generated_Source\PSoC4/BLE_1.c ****                 destBuffer = &cyBle_discoveryData.advData[CYBLE_ADV_PKT_INDEX_BLUETOOTH_DEVICE_ADDR
 671:Generated_Source\PSoC4/BLE_1.c ****             #endif /* CYBLE_ADV_PKT_INDEX_BLUETOOTH_DEVICE_ADDRESS */
 672:Generated_Source\PSoC4/BLE_1.c ****         }
 673:Generated_Source\PSoC4/BLE_1.c ****         else                /* Destination - scan response structure */
 674:Generated_Source\PSoC4/BLE_1.c ****         {
 675:Generated_Source\PSoC4/BLE_1.c ****             #ifdef CYBLE_SCN_PKT_INDEX_BLUETOOTH_DEVICE_ADDRESS
ARM GAS  C:\Users\Harsha\AppData\Local\Temp\ccoVwJKe.s 			page 18


 676:Generated_Source\PSoC4/BLE_1.c ****                 destBuffer = &cyBle_scanRspData.scanRspData[CYBLE_SCN_PKT_INDEX_BLUETOOTH_DEVICE_AD
 677:Generated_Source\PSoC4/BLE_1.c ****             #endif /* CYBLE_SCN_PKT_INDEX_BLUETOOTH_DEVICE_ADDRESS */    
 678:Generated_Source\PSoC4/BLE_1.c ****         }
 679:Generated_Source\PSoC4/BLE_1.c ****         
 680:Generated_Source\PSoC4/BLE_1.c ****         if(destBuffer != NULL)
 681:Generated_Source\PSoC4/BLE_1.c ****         {
 682:Generated_Source\PSoC4/BLE_1.c ****             /* Update Device Address type */
 683:Generated_Source\PSoC4/BLE_1.c ****             destBuffer[0u] = bdAddr->type;
 684:Generated_Source\PSoC4/BLE_1.c ****             
 685:Generated_Source\PSoC4/BLE_1.c ****             for(i = 0u; i < CYBLE_GAP_BD_ADDR_SIZE; i++)
 686:Generated_Source\PSoC4/BLE_1.c ****             {
 687:Generated_Source\PSoC4/BLE_1.c ****                 destBuffer[i + 1u] = bdAddr->bdAddr[i];
 688:Generated_Source\PSoC4/BLE_1.c ****             }
 689:Generated_Source\PSoC4/BLE_1.c ****         }
 690:Generated_Source\PSoC4/BLE_1.c ****     }
 691:Generated_Source\PSoC4/BLE_1.c ****   
 692:Generated_Source\PSoC4/BLE_1.c **** #endif /* CYBLE_GAP_ROLE_PERIPHERAL || CYBLE_GAP_ROLE_BROADCASTER */
 693:Generated_Source\PSoC4/BLE_1.c **** 
 694:Generated_Source\PSoC4/BLE_1.c **** 
 695:Generated_Source\PSoC4/BLE_1.c **** #if(CYBLE_GAP_ROLE_CENTRAL || CYBLE_GAP_ROLE_OBSERVER)
 696:Generated_Source\PSoC4/BLE_1.c **** 
 697:Generated_Source\PSoC4/BLE_1.c ****     /******************************************************************************
 698:Generated_Source\PSoC4/BLE_1.c ****     * Function Name: CyBle_GapcStartScan
 699:Generated_Source\PSoC4/BLE_1.c ****     ***************************************************************************//**
 700:Generated_Source\PSoC4/BLE_1.c ****     * 
 701:Generated_Source\PSoC4/BLE_1.c ****     *   This function is used for discovering GAP peripheral devices that are 
 702:Generated_Source\PSoC4/BLE_1.c ****     *   available for connection. It performs the scanning routine using the 
 703:Generated_Source\PSoC4/BLE_1.c ****     *   parameters entered in the component's customizer.
 704:Generated_Source\PSoC4/BLE_1.c ****     *   
 705:Generated_Source\PSoC4/BLE_1.c ****     *   As soon as the discovery operation starts, CYBLE_EVT_GAPC_SCAN_START_STOP 
 706:Generated_Source\PSoC4/BLE_1.c ****     *   event is generated. The CYBLE_EVT_GAPC_SCAN_PROGRESS_RESULT event is 
 707:Generated_Source\PSoC4/BLE_1.c ****     *   generated when a GAP peripheral device is located. There are three discovery
 708:Generated_Source\PSoC4/BLE_1.c ****     *   procedures can be selected in the customizer's GUI:
 709:Generated_Source\PSoC4/BLE_1.c ****     *   
 710:Generated_Source\PSoC4/BLE_1.c ****     *   * Observation procedure: A device performing the observer role receives only
 711:Generated_Source\PSoC4/BLE_1.c ****     *                            advertisement data from devices irrespective of 
 712:Generated_Source\PSoC4/BLE_1.c ****     *                            their discoverable mode settings. Advertisement 
 713:Generated_Source\PSoC4/BLE_1.c ****     *                            data received is provided by the event,      
 714:Generated_Source\PSoC4/BLE_1.c ****     *                            CYBLE_EVT_GAPC_SCAN_PROGRESS_RESULT. This procedure
 715:Generated_Source\PSoC4/BLE_1.c ****     *                            requires the scanType sub parameter to be passive
 716:Generated_Source\PSoC4/BLE_1.c ****     *                            scanning. 
 717:Generated_Source\PSoC4/BLE_1.c ****     *   
 718:Generated_Source\PSoC4/BLE_1.c ****     *   * Limited Discovery procedure: A device performing the limited discovery
 719:Generated_Source\PSoC4/BLE_1.c ****     *                                  procedure receives advertisement data and 
 720:Generated_Source\PSoC4/BLE_1.c ****     *                                  scan# response data from devices in the 
 721:Generated_Source\PSoC4/BLE_1.c ****     *                                  limited discoverable mode only. Received data
 722:Generated_Source\PSoC4/BLE_1.c ****     *                                  is provided by the event, 
 723:Generated_Source\PSoC4/BLE_1.c ****     *                                  CYBLE_EVT_GAPC_SCAN_PROGRESS_RESULT. This 
 724:Generated_Source\PSoC4/BLE_1.c ****     *                                  procedure requires the scanType sub-parameter 
 725:Generated_Source\PSoC4/BLE_1.c ****     *                                  to be active scanning.
 726:Generated_Source\PSoC4/BLE_1.c ****     *   
 727:Generated_Source\PSoC4/BLE_1.c ****     *   * General Discovery procedure: A device performing the general discovery 
 728:Generated_Source\PSoC4/BLE_1.c ****     *                                  procedure receives the advertisement data and
 729:Generated_Source\PSoC4/BLE_1.c ****     *                                  scan response data from devices in both 
 730:Generated_Source\PSoC4/BLE_1.c ****     *                                  limited discoverable mode and the general 
 731:Generated_Source\PSoC4/BLE_1.c ****     *                                  discoverable mode. Received data is provided
 732:Generated_Source\PSoC4/BLE_1.c ****     *                                  by the event,
ARM GAS  C:\Users\Harsha\AppData\Local\Temp\ccoVwJKe.s 			page 19


 733:Generated_Source\PSoC4/BLE_1.c ****     *                                  CYBLE_EVT_GAPC_SCAN_PROGRESS_RESULT. This 
 734:Generated_Source\PSoC4/BLE_1.c ****     *                                  procedure requires the scanType sub-parameter
 735:Generated_Source\PSoC4/BLE_1.c ****     *                                  to be active scanning.
 736:Generated_Source\PSoC4/BLE_1.c ****     *   
 737:Generated_Source\PSoC4/BLE_1.c ****     *   Every Advertisement / Scan response packet received results in a new event, 
 738:Generated_Source\PSoC4/BLE_1.c ****     *   CYBLE_EVT_GAPC_SCAN_PROGRESS_RESULT.
 739:Generated_Source\PSoC4/BLE_1.c ****     *   If 'scanTo' sub-parameter is a non-zero value, then upon commencement of 
 740:Generated_Source\PSoC4/BLE_1.c ****     *   discovery procedure and elapsed time = 'scanTo', CYBLE_EVT_TIMEOUT event
 741:Generated_Source\PSoC4/BLE_1.c ****     *   is generated with the event parameter indicating CYBLE_GAP_SCAN_TO.
 742:Generated_Source\PSoC4/BLE_1.c ****     *   Possible generated events are:
 743:Generated_Source\PSoC4/BLE_1.c ****     *   * CYBLE_EVT_GAPC_SCAN_START_STOP: If a device started or stopped scanning. 
 744:Generated_Source\PSoC4/BLE_1.c ****     *                                     Use CyBle_GetState() to determine the 
 745:Generated_Source\PSoC4/BLE_1.c ****     *                                     state. Sequential scanning could be 
 746:Generated_Source\PSoC4/BLE_1.c ****     *                                     started when CYBLE_STATE_DISCONNECTED 
 747:Generated_Source\PSoC4/BLE_1.c ****     *                                     state is returned. 
 748:Generated_Source\PSoC4/BLE_1.c ****     *   * CYBLE_EVT_GAPC_SCAN_PROGRESS_RESULT 
 749:Generated_Source\PSoC4/BLE_1.c ****     *   * CYBLE_EVT_TIMEOUT (CYBLE_GAP_SCAN_TO)
 750:Generated_Source\PSoC4/BLE_1.c ****     * 
 751:Generated_Source\PSoC4/BLE_1.c ****     *   \param uint8 scanningIntervalType:  Fast or slow scanning interval with
 752:Generated_Source\PSoC4/BLE_1.c ****     *       timings entered in Scan settings section of the customizer.
 753:Generated_Source\PSoC4/BLE_1.c ****     * 	  * CYBLE_SCANNING_FAST   0x00u
 754:Generated_Source\PSoC4/BLE_1.c ****     * 	  * CYBLE_SCANNING_SLOW   0x01u
 755:Generated_Source\PSoC4/BLE_1.c ****     * 	  * CYBLE_SCANNING_CUSTOM 0x02u
 756:Generated_Source\PSoC4/BLE_1.c ****     * 
 757:Generated_Source\PSoC4/BLE_1.c ****     * \return
 758:Generated_Source\PSoC4/BLE_1.c ****     *  CYBLE_API_RESULT_T : Return value indicates if the function succeeded or
 759:Generated_Source\PSoC4/BLE_1.c ****     *  failed. Following are the possible error codes.
 760:Generated_Source\PSoC4/BLE_1.c ****     *
 761:Generated_Source\PSoC4/BLE_1.c ****     *   Errors codes                       | Description
 762:Generated_Source\PSoC4/BLE_1.c ****     *   ---------------------------------- | -----------------------------------
 763:Generated_Source\PSoC4/BLE_1.c ****     *   CYBLE_ERROR_OK                     | On successful operation.
 764:Generated_Source\PSoC4/BLE_1.c ****     *   CYBLE_ERROR_STACK_INTERNAL         | An error occurred in the BLE stack.
 765:Generated_Source\PSoC4/BLE_1.c ****     *   CYBLE_ERROR_INVALID_PARAMETER      | On passing an invalid parameter.
 766:Generated_Source\PSoC4/BLE_1.c ****     *  
 767:Generated_Source\PSoC4/BLE_1.c ****     *******************************************************************************/
 768:Generated_Source\PSoC4/BLE_1.c ****     CYBLE_API_RESULT_T CyBle_GapcStartScan(uint8 scanningIntervalType)
 769:Generated_Source\PSoC4/BLE_1.c ****     {
 278              		.loc 1 769 0
 279              		.cfi_startproc
 280              	.LVL14:
 281 0000 08B5     		push	{r3, lr}
 282              		.cfi_def_cfa_offset 8
 283              		.cfi_offset 3, -8
 284              		.cfi_offset 14, -4
 770:Generated_Source\PSoC4/BLE_1.c ****         CYBLE_API_RESULT_T apiResult;
 771:Generated_Source\PSoC4/BLE_1.c **** 
 772:Generated_Source\PSoC4/BLE_1.c ****         if(scanningIntervalType > CYBLE_SCANNING_CUSTOM)
 285              		.loc 1 772 0
 286 0002 0228     		cmp	r0, #2
 287 0004 1FD8     		bhi	.L20
 773:Generated_Source\PSoC4/BLE_1.c ****         {
 774:Generated_Source\PSoC4/BLE_1.c ****             apiResult = CYBLE_ERROR_INVALID_PARAMETER;
 775:Generated_Source\PSoC4/BLE_1.c ****         }
 776:Generated_Source\PSoC4/BLE_1.c ****         else
 777:Generated_Source\PSoC4/BLE_1.c ****         {
 778:Generated_Source\PSoC4/BLE_1.c ****             if(scanningIntervalType == CYBLE_SCANNING_FAST)
 288              		.loc 1 778 0
ARM GAS  C:\Users\Harsha\AppData\Local\Temp\ccoVwJKe.s 			page 20


 289 0006 0028     		cmp	r0, #0
 290 0008 06D1     		bne	.L18
 779:Generated_Source\PSoC4/BLE_1.c ****             {
 780:Generated_Source\PSoC4/BLE_1.c ****                 cyBle_discoveryInfo.scanTo = CYBLE_FAST_SCAN_TIMEOUT;
 291              		.loc 1 780 0
 292 000a 104B     		ldr	r3, .L21
 293 000c 3C22     		mov	r2, #60
 294 000e 1A81     		strh	r2, [r3, #8]
 781:Generated_Source\PSoC4/BLE_1.c ****                 cyBle_discoveryInfo.scanIntv = CYBLE_FAST_SCAN_INTERVAL;
 295              		.loc 1 781 0
 296 0010 343A     		sub	r2, r2, #52
 297 0012 5A80     		strh	r2, [r3, #2]
 782:Generated_Source\PSoC4/BLE_1.c ****                 cyBle_discoveryInfo.scanWindow = CYBLE_FAST_SCAN_WINDOW;
 298              		.loc 1 782 0
 299 0014 9A80     		strh	r2, [r3, #4]
 300 0016 09E0     		b	.L19
 301              	.L18:
 783:Generated_Source\PSoC4/BLE_1.c ****             }
 784:Generated_Source\PSoC4/BLE_1.c ****             else if(scanningIntervalType == CYBLE_SCANNING_SLOW)
 302              		.loc 1 784 0
 303 0018 0128     		cmp	r0, #1
 304 001a 07D1     		bne	.L19
 785:Generated_Source\PSoC4/BLE_1.c ****             {
 786:Generated_Source\PSoC4/BLE_1.c ****                 cyBle_discoveryInfo.scanTo = CYBLE_SLOW_SCAN_TIMEOUT;
 305              		.loc 1 786 0
 306 001c 0B4B     		ldr	r3, .L21
 307 001e 9622     		mov	r2, #150
 308 0020 1A81     		strh	r2, [r3, #8]
 787:Generated_Source\PSoC4/BLE_1.c ****                 cyBle_discoveryInfo.scanIntv = CYBLE_SLOW_SCAN_INTERVAL;
 309              		.loc 1 787 0
 310 0022 8022     		mov	r2, #128
 311 0024 1201     		lsl	r2, r2, #4
 312 0026 5A80     		strh	r2, [r3, #2]
 788:Generated_Source\PSoC4/BLE_1.c ****                 cyBle_discoveryInfo.scanWindow = CYBLE_SLOW_SCAN_WINDOW;
 313              		.loc 1 788 0
 314 0028 F83A     		sub	r2, r2, #248
 315 002a 9A80     		strh	r2, [r3, #4]
 316              	.L19:
 789:Generated_Source\PSoC4/BLE_1.c ****             }       
 790:Generated_Source\PSoC4/BLE_1.c ****             else /* Do not update scanning intervals */
 791:Generated_Source\PSoC4/BLE_1.c ****             {
 792:Generated_Source\PSoC4/BLE_1.c ****             }
 793:Generated_Source\PSoC4/BLE_1.c ****             
 794:Generated_Source\PSoC4/BLE_1.c ****             cyBle_scanningIntervalType = scanningIntervalType;
 317              		.loc 1 794 0
 318 002c 084B     		ldr	r3, .L21+4
 319 002e 1870     		strb	r0, [r3]
 795:Generated_Source\PSoC4/BLE_1.c ****             apiResult = CyBle_GapcStartDiscovery(&cyBle_discoveryInfo);
 320              		.loc 1 795 0
 321 0030 0648     		ldr	r0, .L21
 322              	.LVL15:
 323 0032 FFF7FEFF 		bl	CyBle_GapcStartDiscovery
 324              	.LVL16:
 796:Generated_Source\PSoC4/BLE_1.c ****         
 797:Generated_Source\PSoC4/BLE_1.c ****             if(CYBLE_ERROR_OK == apiResult)
 325              		.loc 1 797 0
 326 0036 0028     		cmp	r0, #0
ARM GAS  C:\Users\Harsha\AppData\Local\Temp\ccoVwJKe.s 			page 21


 327 0038 06D1     		bne	.L17
 798:Generated_Source\PSoC4/BLE_1.c ****             {
 799:Generated_Source\PSoC4/BLE_1.c ****                 cyBle_eventHandlerFlag |= CYBLE_START_FLAG;
 328              		.loc 1 799 0
 329 003a 064A     		ldr	r2, .L21+8
 330 003c 1178     		ldrb	r1, [r2]
 331 003e 0423     		mov	r3, #4
 332 0040 0B43     		orr	r3, r1
 333 0042 1370     		strb	r3, [r2]
 334 0044 00E0     		b	.L17
 335              	.LVL17:
 336              	.L20:
 774:Generated_Source\PSoC4/BLE_1.c ****         }
 337              		.loc 1 774 0
 338 0046 0120     		mov	r0, #1
 339              	.LVL18:
 340              	.L17:
 800:Generated_Source\PSoC4/BLE_1.c ****             }
 801:Generated_Source\PSoC4/BLE_1.c ****         }
 802:Generated_Source\PSoC4/BLE_1.c ****        
 803:Generated_Source\PSoC4/BLE_1.c ****         return (apiResult);
 804:Generated_Source\PSoC4/BLE_1.c ****     }
 341              		.loc 1 804 0
 342              		@ sp needed
 343 0048 08BD     		pop	{r3, pc}
 344              	.L22:
 345 004a C046     		.align	2
 346              	.L21:
 347 004c 00000000 		.word	.LANCHOR0
 348 0050 00000000 		.word	cyBle_scanningIntervalType
 349 0054 00000000 		.word	cyBle_eventHandlerFlag
 350              		.cfi_endproc
 351              	.LFE6:
 352              		.size	CyBle_GapcStartScan, .-CyBle_GapcStartScan
 353              		.section	.text.CyBle_GapcStopScan,"ax",%progbits
 354              		.align	2
 355              		.global	CyBle_GapcStopScan
 356              		.code	16
 357              		.thumb_func
 358              		.type	CyBle_GapcStopScan, %function
 359              	CyBle_GapcStopScan:
 360              	.LFB7:
 805:Generated_Source\PSoC4/BLE_1.c ****     
 806:Generated_Source\PSoC4/BLE_1.c ****     
 807:Generated_Source\PSoC4/BLE_1.c ****     /******************************************************************************
 808:Generated_Source\PSoC4/BLE_1.c ****     * Function Name: CyBle_GapcStopScan
 809:Generated_Source\PSoC4/BLE_1.c ****     ***************************************************************************//**
 810:Generated_Source\PSoC4/BLE_1.c ****     * 
 811:Generated_Source\PSoC4/BLE_1.c ****     *   This function used to stop the discovery of devices. On stopping discovery
 812:Generated_Source\PSoC4/BLE_1.c ****     *   operation, CYBLE_EVT_GAPC_SCAN_START_STOP event is generated. Application
 813:Generated_Source\PSoC4/BLE_1.c ****     *   layer needs to keep track of the function call made before receiving this
 814:Generated_Source\PSoC4/BLE_1.c ****     *   event to associate this event with either the start or stop discovery
 815:Generated_Source\PSoC4/BLE_1.c ****     *   function.
 816:Generated_Source\PSoC4/BLE_1.c ****     * 
 817:Generated_Source\PSoC4/BLE_1.c ****     *   Possible events generated are:
 818:Generated_Source\PSoC4/BLE_1.c ****     *    * CYBLE_EVT_GAPC_SCAN_START_STOP
 819:Generated_Source\PSoC4/BLE_1.c ****     * 
ARM GAS  C:\Users\Harsha\AppData\Local\Temp\ccoVwJKe.s 			page 22


 820:Generated_Source\PSoC4/BLE_1.c ****     *  \return
 821:Generated_Source\PSoC4/BLE_1.c ****     *   None
 822:Generated_Source\PSoC4/BLE_1.c ****     * 
 823:Generated_Source\PSoC4/BLE_1.c ****     *******************************************************************************/
 824:Generated_Source\PSoC4/BLE_1.c ****     void CyBle_GapcStopScan(void)
 825:Generated_Source\PSoC4/BLE_1.c ****     {
 361              		.loc 1 825 0
 362              		.cfi_startproc
 363 0000 08B5     		push	{r3, lr}
 364              		.cfi_def_cfa_offset 8
 365              		.cfi_offset 3, -8
 366              		.cfi_offset 14, -4
 826:Generated_Source\PSoC4/BLE_1.c ****         CyBle_GapcStopDiscovery();
 367              		.loc 1 826 0
 368 0002 FFF7FEFF 		bl	CyBle_GapcStopDiscovery
 369              	.LVL19:
 827:Generated_Source\PSoC4/BLE_1.c ****         
 828:Generated_Source\PSoC4/BLE_1.c ****         cyBle_eventHandlerFlag |= CYBLE_STOP_FLAG;
 370              		.loc 1 828 0
 371 0006 034A     		ldr	r2, .L24
 372 0008 1178     		ldrb	r1, [r2]
 373 000a 0823     		mov	r3, #8
 374 000c 0B43     		orr	r3, r1
 375 000e 1370     		strb	r3, [r2]
 829:Generated_Source\PSoC4/BLE_1.c ****     }
 376              		.loc 1 829 0
 377              		@ sp needed
 378 0010 08BD     		pop	{r3, pc}
 379              	.L25:
 380 0012 C046     		.align	2
 381              	.L24:
 382 0014 00000000 		.word	cyBle_eventHandlerFlag
 383              		.cfi_endproc
 384              	.LFE7:
 385              		.size	CyBle_GapcStopScan, .-CyBle_GapcStopScan
 386              		.section	.text.CyBle_GapcConnectDevice,"ax",%progbits
 387              		.align	2
 388              		.global	CyBle_GapcConnectDevice
 389              		.code	16
 390              		.thumb_func
 391              		.type	CyBle_GapcConnectDevice, %function
 392              	CyBle_GapcConnectDevice:
 393              	.LFB8:
 830:Generated_Source\PSoC4/BLE_1.c **** 
 831:Generated_Source\PSoC4/BLE_1.c ****     
 832:Generated_Source\PSoC4/BLE_1.c **** #endif /* CYBLE_GAP_ROLE_CENTRAL || CYBLE_GAP_ROLE_OBSERVER */
 833:Generated_Source\PSoC4/BLE_1.c **** 
 834:Generated_Source\PSoC4/BLE_1.c **** 
 835:Generated_Source\PSoC4/BLE_1.c **** #if(CYBLE_GAP_ROLE_CENTRAL)
 836:Generated_Source\PSoC4/BLE_1.c **** 
 837:Generated_Source\PSoC4/BLE_1.c ****     /******************************************************************************
 838:Generated_Source\PSoC4/BLE_1.c ****     * Function Name: CyBle_GapcConnectDevice
 839:Generated_Source\PSoC4/BLE_1.c ****     ***************************************************************************//**
 840:Generated_Source\PSoC4/BLE_1.c ****     * 
 841:Generated_Source\PSoC4/BLE_1.c ****     *  This function is used to send a connection request to the remote device with
 842:Generated_Source\PSoC4/BLE_1.c ****     *  the connection parameters set in the component customizer. This function needs
 843:Generated_Source\PSoC4/BLE_1.c ****     *  to be called only once after the target device is discovered by 
ARM GAS  C:\Users\Harsha\AppData\Local\Temp\ccoVwJKe.s 			page 23


 844:Generated_Source\PSoC4/BLE_1.c ****     *  CyBle_GapcStartScan() and further scanning has stopped. Scanning is 
 845:Generated_Source\PSoC4/BLE_1.c ****     *  successfully stopped on invoking CyBle_GapcStopScan() and then receiving the
 846:Generated_Source\PSoC4/BLE_1.c ****     *  event CYBLE_EVT_GAPC_SCAN_START_STOP with sub-parameter 'success' = 0x01u.
 847:Generated_Source\PSoC4/BLE_1.c ****     *  
 848:Generated_Source\PSoC4/BLE_1.c ****     *  On successful connection, the following events are generated at the GAP 
 849:Generated_Source\PSoC4/BLE_1.c ****     *  Central device (as well as the GAP Peripheral device), in the following order.
 850:Generated_Source\PSoC4/BLE_1.c ****     *  * CYBLE_EVT_GATT_CONNECT_IND
 851:Generated_Source\PSoC4/BLE_1.c ****     *  * CYBLE_EVT_GAP_DEVICE_CONNECTED
 852:Generated_Source\PSoC4/BLE_1.c ****     *  
 853:Generated_Source\PSoC4/BLE_1.c ****     *  A procedure is considered to have timed out if a connection response packet is 
 854:Generated_Source\PSoC4/BLE_1.c ****     *  not received within time set by cyBle_connectingTimeout global variable
 855:Generated_Source\PSoC4/BLE_1.c ****     *  (30 seconds by default). CYBLE_EVT_TIMEOUT event with CYBLE_GENERIC_TO parameter
 856:Generated_Source\PSoC4/BLE_1.c ****     *  will indicate about connection procedure timeout. Connection will automatically
 857:Generated_Source\PSoC4/BLE_1.c ****     *  be canceled and state will be changed to CYBLE_STATE_DISCONNECTED.
 858:Generated_Source\PSoC4/BLE_1.c ****     * 
 859:Generated_Source\PSoC4/BLE_1.c ****     *  \param const CYBLE_GAP_BD_ADDR_T address: The device address of the remote device to 
 860:Generated_Source\PSoC4/BLE_1.c ****     *                                     connect to. 
 861:Generated_Source\PSoC4/BLE_1.c ****     *  \param timeout: Timeout for which timer to be started in seconds.
 862:Generated_Source\PSoC4/BLE_1.c ****     *  
 863:Generated_Source\PSoC4/BLE_1.c ****     * \return
 864:Generated_Source\PSoC4/BLE_1.c ****     *  CYBLE_API_RESULT_T : Return value indicates if the function succeeded or 
 865:Generated_Source\PSoC4/BLE_1.c ****     *  failed. Following are the possible error codes.
 866:Generated_Source\PSoC4/BLE_1.c ****     *
 867:Generated_Source\PSoC4/BLE_1.c ****     *   Errors codes                       | Description
 868:Generated_Source\PSoC4/BLE_1.c ****     *   ------------                       | -----------
 869:Generated_Source\PSoC4/BLE_1.c ****     *   CYBLE_ERROR_OK                     | On successful operation.
 870:Generated_Source\PSoC4/BLE_1.c ****     *   CYBLE_ERROR_STACK_INTERNAL         | On error occurred in the BLE stack.
 871:Generated_Source\PSoC4/BLE_1.c ****     *   CYBLE_ERROR_INVALID_PARAMETER      | On passing an invalid parameter.
 872:Generated_Source\PSoC4/BLE_1.c ****     *   CYBLE_ERROR_INVALID_STATE          | On calling this API not in Disconnected state.
 873:Generated_Source\PSoC4/BLE_1.c ****     *  
 874:Generated_Source\PSoC4/BLE_1.c ****     ******************************************************************************/
 875:Generated_Source\PSoC4/BLE_1.c ****     CYBLE_API_RESULT_T CyBle_GapcConnectDevice(const CYBLE_GAP_BD_ADDR_T * address)
 876:Generated_Source\PSoC4/BLE_1.c ****     {
 394              		.loc 1 876 0
 395              		.cfi_startproc
 396              	.LVL20:
 397 0000 10B5     		push	{r4, lr}
 398              		.cfi_def_cfa_offset 8
 399              		.cfi_offset 4, -8
 400              		.cfi_offset 14, -4
 877:Generated_Source\PSoC4/BLE_1.c ****         CYBLE_API_RESULT_T apiResult;
 878:Generated_Source\PSoC4/BLE_1.c ****         uint8 i;
 879:Generated_Source\PSoC4/BLE_1.c **** 
 880:Generated_Source\PSoC4/BLE_1.c ****         if(CYBLE_STATE_DISCONNECTED != CyBle_GetState())
 401              		.loc 1 880 0
 402 0002 134B     		ldr	r3, .L32
 403 0004 1B78     		ldrb	r3, [r3]
 404 0006 052B     		cmp	r3, #5
 405 0008 1CD1     		bne	.L30
 881:Generated_Source\PSoC4/BLE_1.c ****         {
 882:Generated_Source\PSoC4/BLE_1.c ****             apiResult = CYBLE_ERROR_INVALID_STATE;
 883:Generated_Source\PSoC4/BLE_1.c ****         }
 884:Generated_Source\PSoC4/BLE_1.c ****         else if(address == NULL)
 406              		.loc 1 884 0
 407 000a 0028     		cmp	r0, #0
 408 000c 1DD0     		beq	.L31
 409 000e 0023     		mov	r3, #0
ARM GAS  C:\Users\Harsha\AppData\Local\Temp\ccoVwJKe.s 			page 24


 410 0010 05E0     		b	.L28
 411              	.LVL21:
 412              	.L29:
 885:Generated_Source\PSoC4/BLE_1.c ****         {
 886:Generated_Source\PSoC4/BLE_1.c ****             apiResult = CYBLE_ERROR_INVALID_PARAMETER;
 887:Generated_Source\PSoC4/BLE_1.c ****         }
 888:Generated_Source\PSoC4/BLE_1.c ****         else
 889:Generated_Source\PSoC4/BLE_1.c ****         {
 890:Generated_Source\PSoC4/BLE_1.c ****             for(i = 0u; i < CYBLE_GAP_BD_ADDR_SIZE; i++)
 891:Generated_Source\PSoC4/BLE_1.c ****             {
 892:Generated_Source\PSoC4/BLE_1.c ****                 cyBle_connectionParameters.peerBdAddr[i] = address->bdAddr[i];
 413              		.loc 1 892 0 discriminator 3
 414 0012 C15C     		ldrb	r1, [r0, r3]
 415 0014 0F4A     		ldr	r2, .L32+4
 416 0016 D218     		add	r2, r2, r3
 417 0018 5171     		strb	r1, [r2, #5]
 890:Generated_Source\PSoC4/BLE_1.c ****             {
 418              		.loc 1 890 0 discriminator 3
 419 001a 0133     		add	r3, r3, #1
 420              	.LVL22:
 421 001c DBB2     		uxtb	r3, r3
 422              	.LVL23:
 423              	.L28:
 890:Generated_Source\PSoC4/BLE_1.c ****             {
 424              		.loc 1 890 0 is_stmt 0 discriminator 1
 425 001e 052B     		cmp	r3, #5
 426 0020 F7D9     		bls	.L29
 893:Generated_Source\PSoC4/BLE_1.c ****             }
 894:Generated_Source\PSoC4/BLE_1.c ****             cyBle_connectionParameters.peerAddrType = address -> type;
 427              		.loc 1 894 0 is_stmt 1
 428 0022 8379     		ldrb	r3, [r0, #6]
 429              	.LVL24:
 430 0024 0B48     		ldr	r0, .L32+4
 431              	.LVL25:
 432 0026 C372     		strb	r3, [r0, #11]
 895:Generated_Source\PSoC4/BLE_1.c ****             apiResult = CyBle_GapcInitConnection(&cyBle_connectionParameters);
 433              		.loc 1 895 0
 434 0028 FFF7FEFF 		bl	CyBle_GapcInitConnection
 435              	.LVL26:
 436 002c 041E     		sub	r4, r0, #0
 437              	.LVL27:
 896:Generated_Source\PSoC4/BLE_1.c ****             
 897:Generated_Source\PSoC4/BLE_1.c ****             if(CYBLE_ERROR_OK == apiResult)
 438              		.loc 1 897 0
 439 002e 0DD1     		bne	.L27
 898:Generated_Source\PSoC4/BLE_1.c ****             {
 899:Generated_Source\PSoC4/BLE_1.c ****                 CyBle_SetState(CYBLE_STATE_CONNECTING);
 440              		.loc 1 899 0
 441 0030 0422     		mov	r2, #4
 442 0032 074B     		ldr	r3, .L32
 443 0034 1A70     		strb	r2, [r3]
 900:Generated_Source\PSoC4/BLE_1.c ****                 if(cyBle_connectingTimeout != 0u)
 444              		.loc 1 900 0
 445 0036 084B     		ldr	r3, .L32+8
 446 0038 1888     		ldrh	r0, [r3]
 447              	.LVL28:
 448 003a 0028     		cmp	r0, #0
ARM GAS  C:\Users\Harsha\AppData\Local\Temp\ccoVwJKe.s 			page 25


 449 003c 06D0     		beq	.L27
 901:Generated_Source\PSoC4/BLE_1.c ****                 {
 902:Generated_Source\PSoC4/BLE_1.c ****                     (void)CyBle_StartTimer(cyBle_connectingTimeout);
 450              		.loc 1 902 0
 451 003e FFF7FEFF 		bl	CyBle_StartTimer
 452              	.LVL29:
 453 0042 03E0     		b	.L27
 454              	.LVL30:
 455              	.L30:
 882:Generated_Source\PSoC4/BLE_1.c ****         }
 456              		.loc 1 882 0
 457 0044 0424     		mov	r4, #4
 458 0046 FF34     		add	r4, r4, #255
 459 0048 00E0     		b	.L27
 460              	.L31:
 886:Generated_Source\PSoC4/BLE_1.c ****         }
 461              		.loc 1 886 0
 462 004a 0124     		mov	r4, #1
 463              	.LVL31:
 464              	.L27:
 903:Generated_Source\PSoC4/BLE_1.c ****                 }
 904:Generated_Source\PSoC4/BLE_1.c ****             }
 905:Generated_Source\PSoC4/BLE_1.c ****         }
 906:Generated_Source\PSoC4/BLE_1.c ****         return (apiResult);
 907:Generated_Source\PSoC4/BLE_1.c ****     }
 465              		.loc 1 907 0
 466 004c 201C     		mov	r0, r4
 467              		@ sp needed
 468              	.LVL32:
 469 004e 10BD     		pop	{r4, pc}
 470              	.L33:
 471              		.align	2
 472              	.L32:
 473 0050 00000000 		.word	cyBle_state
 474 0054 00000000 		.word	cyBle_connectionParameters
 475 0058 00000000 		.word	cyBle_connectingTimeout
 476              		.cfi_endproc
 477              	.LFE8:
 478              		.size	CyBle_GapcConnectDevice, .-CyBle_GapcConnectDevice
 479              		.section	.text.CyBle_GapcCancelDeviceConnection,"ax",%progbits
 480              		.align	2
 481              		.global	CyBle_GapcCancelDeviceConnection
 482              		.code	16
 483              		.thumb_func
 484              		.type	CyBle_GapcCancelDeviceConnection, %function
 485              	CyBle_GapcCancelDeviceConnection:
 486              	.LFB9:
 908:Generated_Source\PSoC4/BLE_1.c ****     
 909:Generated_Source\PSoC4/BLE_1.c **** 
 910:Generated_Source\PSoC4/BLE_1.c ****     /******************************************************************************
 911:Generated_Source\PSoC4/BLE_1.c ****     * Function Name: CyBle_GapcCancelDeviceConnection
 912:Generated_Source\PSoC4/BLE_1.c ****     ***************************************************************************//**
 913:Generated_Source\PSoC4/BLE_1.c ****     * 
 914:Generated_Source\PSoC4/BLE_1.c ****     *  This function cancels a previously initiated connection with the remote 
 915:Generated_Source\PSoC4/BLE_1.c ****     *  device. It is a blocking function. No event is generated on calling this 
 916:Generated_Source\PSoC4/BLE_1.c ****     *  function. If the devices are already connected then this function should not
 917:Generated_Source\PSoC4/BLE_1.c ****     *  be used. If you intend to disconnect from an existing connection, the function
ARM GAS  C:\Users\Harsha\AppData\Local\Temp\ccoVwJKe.s 			page 26


 918:Generated_Source\PSoC4/BLE_1.c ****     *  CyBle_GapDisconnect() should be used.
 919:Generated_Source\PSoC4/BLE_1.c ****     * 
 920:Generated_Source\PSoC4/BLE_1.c ****     * \return
 921:Generated_Source\PSoC4/BLE_1.c ****     *  CYBLE_API_RESULT_T : Return value indicates if the function succeeded or 
 922:Generated_Source\PSoC4/BLE_1.c ****     *  failed. Following are the possible error codes.
 923:Generated_Source\PSoC4/BLE_1.c ****     *
 924:Generated_Source\PSoC4/BLE_1.c ****     *   Errors codes                       | Description
 925:Generated_Source\PSoC4/BLE_1.c ****     *   ---------------------------------- | --------------------------------------
 926:Generated_Source\PSoC4/BLE_1.c ****     *   CYBLE_ERROR_OK                     | On successful operation.
 927:Generated_Source\PSoC4/BLE_1.c ****     *   CYBLE_ERROR_STACK_INTERNAL         | An error occurred in the BLE stack.
 928:Generated_Source\PSoC4/BLE_1.c ****     *   CYBLE_ERROR_INVALID_OPERATION      | Device is already connected.
 929:Generated_Source\PSoC4/BLE_1.c ****     *  
 930:Generated_Source\PSoC4/BLE_1.c ****     *******************************************************************************/
 931:Generated_Source\PSoC4/BLE_1.c ****     CYBLE_API_RESULT_T CyBle_GapcCancelDeviceConnection(void)
 932:Generated_Source\PSoC4/BLE_1.c ****     {
 487              		.loc 1 932 0
 488              		.cfi_startproc
 489 0000 38B5     		push	{r3, r4, r5, lr}
 490              		.cfi_def_cfa_offset 16
 491              		.cfi_offset 3, -16
 492              		.cfi_offset 4, -12
 493              		.cfi_offset 5, -8
 494              		.cfi_offset 14, -4
 933:Generated_Source\PSoC4/BLE_1.c ****         CYBLE_API_RESULT_T apiResult;
 934:Generated_Source\PSoC4/BLE_1.c ****         
 935:Generated_Source\PSoC4/BLE_1.c ****         apiResult = CyBle_GapcCancelConnection();
 495              		.loc 1 935 0
 496 0002 FFF7FEFF 		bl	CyBle_GapcCancelConnection
 497              	.LVL33:
 498 0006 041C     		mov	r4, r0
 499 0008 051C     		mov	r5, r0
 500              	.LVL34:
 936:Generated_Source\PSoC4/BLE_1.c ****             
 937:Generated_Source\PSoC4/BLE_1.c ****         if(cyBle_connectingTimeout != 0u)
 501              		.loc 1 937 0
 502 000a 064B     		ldr	r3, .L37
 503 000c 1B88     		ldrh	r3, [r3]
 504 000e 002B     		cmp	r3, #0
 505 0010 01D0     		beq	.L35
 938:Generated_Source\PSoC4/BLE_1.c ****         {
 939:Generated_Source\PSoC4/BLE_1.c ****             (void)CyBle_StopTimer();
 506              		.loc 1 939 0
 507 0012 FFF7FEFF 		bl	CyBle_StopTimer
 508              	.LVL35:
 509              	.L35:
 940:Generated_Source\PSoC4/BLE_1.c ****         }
 941:Generated_Source\PSoC4/BLE_1.c **** 
 942:Generated_Source\PSoC4/BLE_1.c ****         if(CYBLE_ERROR_OK == apiResult)
 510              		.loc 1 942 0
 511 0016 002D     		cmp	r5, #0
 512 0018 02D1     		bne	.L36
 943:Generated_Source\PSoC4/BLE_1.c ****         {
 944:Generated_Source\PSoC4/BLE_1.c ****             CyBle_SetState(CYBLE_STATE_DISCONNECTED);
 513              		.loc 1 944 0
 514 001a 0522     		mov	r2, #5
 515 001c 024B     		ldr	r3, .L37+4
 516 001e 1A70     		strb	r2, [r3]
ARM GAS  C:\Users\Harsha\AppData\Local\Temp\ccoVwJKe.s 			page 27


 517              	.L36:
 945:Generated_Source\PSoC4/BLE_1.c ****         }
 946:Generated_Source\PSoC4/BLE_1.c ****         return (apiResult);
 947:Generated_Source\PSoC4/BLE_1.c ****     }    
 518              		.loc 1 947 0
 519 0020 201C     		mov	r0, r4
 520              		@ sp needed
 521              	.LVL36:
 522 0022 38BD     		pop	{r3, r4, r5, pc}
 523              	.L38:
 524              		.align	2
 525              	.L37:
 526 0024 00000000 		.word	cyBle_connectingTimeout
 527 0028 00000000 		.word	cyBle_state
 528              		.cfi_endproc
 529              	.LFE9:
 530              		.size	CyBle_GapcCancelDeviceConnection, .-CyBle_GapcCancelDeviceConnection
 531              		.section	.text.CyBle_GapSetLocalName,"ax",%progbits
 532              		.align	2
 533              		.global	CyBle_GapSetLocalName
 534              		.code	16
 535              		.thumb_func
 536              		.type	CyBle_GapSetLocalName, %function
 537              	CyBle_GapSetLocalName:
 538              	.LFB10:
 948:Generated_Source\PSoC4/BLE_1.c **** 
 949:Generated_Source\PSoC4/BLE_1.c ****     
 950:Generated_Source\PSoC4/BLE_1.c **** #endif /* CYBLE_GAP_ROLE_CENTRAL */
 951:Generated_Source\PSoC4/BLE_1.c **** 
 952:Generated_Source\PSoC4/BLE_1.c **** 
 953:Generated_Source\PSoC4/BLE_1.c **** #if(CYBLE_GATT_ROLE_SERVER)
 954:Generated_Source\PSoC4/BLE_1.c **** 
 955:Generated_Source\PSoC4/BLE_1.c **** #if(CYBLE_GAP_ROLE_PERIPHERAL)
 956:Generated_Source\PSoC4/BLE_1.c **** 
 957:Generated_Source\PSoC4/BLE_1.c ****         /******************************************************************************
 958:Generated_Source\PSoC4/BLE_1.c ****         * Function Name: CyBle_ChangeAdLocalName
 959:Generated_Source\PSoC4/BLE_1.c ****         ***************************************************************************//**
 960:Generated_Source\PSoC4/BLE_1.c ****         *  This API is used to set the local device name in the advertisement or scan 
 961:Generated_Source\PSoC4/BLE_1.c ****         *  response data structure.
 962:Generated_Source\PSoC4/BLE_1.c ****         * 
 963:Generated_Source\PSoC4/BLE_1.c ****         *  \param char8 name: The local device name string to be set in advertisement data 
 964:Generated_Source\PSoC4/BLE_1.c ****         *            structure.
 965:Generated_Source\PSoC4/BLE_1.c ****         *  \param uint8 dest: 0 - advertisement structure, not zero value selects scan response
 966:Generated_Source\PSoC4/BLE_1.c ****         *              structure.
 967:Generated_Source\PSoC4/BLE_1.c ****         * 
 968:Generated_Source\PSoC4/BLE_1.c ****         * \return
 969:Generated_Source\PSoC4/BLE_1.c ****         *  None
 970:Generated_Source\PSoC4/BLE_1.c ****         *  
 971:Generated_Source\PSoC4/BLE_1.c ****         *******************************************************************************/
 972:Generated_Source\PSoC4/BLE_1.c ****         static void CyBle_ChangeAdLocalName(const char8 name[], uint8 dest)
 973:Generated_Source\PSoC4/BLE_1.c ****         {
 974:Generated_Source\PSoC4/BLE_1.c ****             uint8 i;
 975:Generated_Source\PSoC4/BLE_1.c ****             uint8 flag = 0u;
 976:Generated_Source\PSoC4/BLE_1.c ****             uint8 adLength = 0u;
 977:Generated_Source\PSoC4/BLE_1.c ****             uint8 byteCounter = 0u;
 978:Generated_Source\PSoC4/BLE_1.c ****             uint8 *destBuffer;
 979:Generated_Source\PSoC4/BLE_1.c ****             uint8 maxLength;
ARM GAS  C:\Users\Harsha\AppData\Local\Temp\ccoVwJKe.s 			page 28


 980:Generated_Source\PSoC4/BLE_1.c ****             
 981:Generated_Source\PSoC4/BLE_1.c ****             if(dest == 0u)      /* Destination - advertising structure */
 982:Generated_Source\PSoC4/BLE_1.c ****             {
 983:Generated_Source\PSoC4/BLE_1.c ****                 destBuffer = cyBle_discoveryData.advData;
 984:Generated_Source\PSoC4/BLE_1.c ****                 maxLength = cyBle_discoveryData.advDataLen;
 985:Generated_Source\PSoC4/BLE_1.c ****             }
 986:Generated_Source\PSoC4/BLE_1.c ****             else                /* Destination - scan response structure */
 987:Generated_Source\PSoC4/BLE_1.c ****             {
 988:Generated_Source\PSoC4/BLE_1.c ****                 destBuffer = cyBle_scanRspData.scanRspData;
 989:Generated_Source\PSoC4/BLE_1.c ****                 maxLength = cyBle_scanRspData.scanRspDataLen;
 990:Generated_Source\PSoC4/BLE_1.c ****             }
 991:Generated_Source\PSoC4/BLE_1.c ****             
 992:Generated_Source\PSoC4/BLE_1.c ****             while((byteCounter < maxLength) && (0u == flag))
 993:Generated_Source\PSoC4/BLE_1.c ****             {
 994:Generated_Source\PSoC4/BLE_1.c ****                 adLength = destBuffer[byteCounter];
 995:Generated_Source\PSoC4/BLE_1.c ****                 
 996:Generated_Source\PSoC4/BLE_1.c ****                 if(0u != adLength)
 997:Generated_Source\PSoC4/BLE_1.c ****                 {
 998:Generated_Source\PSoC4/BLE_1.c ****                     /* Increment byte counter so it can point to AD type */
 999:Generated_Source\PSoC4/BLE_1.c ****                     byteCounter++;
1000:Generated_Source\PSoC4/BLE_1.c ****                     
1001:Generated_Source\PSoC4/BLE_1.c ****                     if((CYBLE_SHORT_LOCAL_NAME == destBuffer[byteCounter]) || 
1002:Generated_Source\PSoC4/BLE_1.c ****                        (CYBLE_COMPLETE_LOCAL_NAME == destBuffer[byteCounter]))
1003:Generated_Source\PSoC4/BLE_1.c ****                     {
1004:Generated_Source\PSoC4/BLE_1.c ****                         /* Start of the Local Name AD type was fount. Set flag and exit the loop. *
1005:Generated_Source\PSoC4/BLE_1.c ****                         flag = 1u;
1006:Generated_Source\PSoC4/BLE_1.c ****                     }
1007:Generated_Source\PSoC4/BLE_1.c ****                     else
1008:Generated_Source\PSoC4/BLE_1.c ****                     {
1009:Generated_Source\PSoC4/BLE_1.c ****                         byteCounter += adLength;
1010:Generated_Source\PSoC4/BLE_1.c ****                     }
1011:Generated_Source\PSoC4/BLE_1.c ****                 }
1012:Generated_Source\PSoC4/BLE_1.c ****                 else
1013:Generated_Source\PSoC4/BLE_1.c ****                 {
1014:Generated_Source\PSoC4/BLE_1.c ****                     /* The end of advertisement data structure was encountered though exit the loop
1015:Generated_Source\PSoC4/BLE_1.c ****                     break;
1016:Generated_Source\PSoC4/BLE_1.c ****                 }
1017:Generated_Source\PSoC4/BLE_1.c ****             }
1018:Generated_Source\PSoC4/BLE_1.c ****             
1019:Generated_Source\PSoC4/BLE_1.c ****             if(0u != flag)
1020:Generated_Source\PSoC4/BLE_1.c ****             {
1021:Generated_Source\PSoC4/BLE_1.c ****                 /* Reuse "adLength" to hold location of the last character of local name in 
1022:Generated_Source\PSoC4/BLE_1.c ****                    AD structure. */
1023:Generated_Source\PSoC4/BLE_1.c ****                 adLength += byteCounter;
1024:Generated_Source\PSoC4/BLE_1.c ****                 
1025:Generated_Source\PSoC4/BLE_1.c ****                 /* Increment byte counter to point to start of the local Name string */
1026:Generated_Source\PSoC4/BLE_1.c ****                 byteCounter++;
1027:Generated_Source\PSoC4/BLE_1.c ****                 
1028:Generated_Source\PSoC4/BLE_1.c ****                 for(i = byteCounter; ((i < (adLength)) && (CYBLE_NULL_CHARCTER != name[i - byteCoun
1029:Generated_Source\PSoC4/BLE_1.c ****                 {
1030:Generated_Source\PSoC4/BLE_1.c ****                     destBuffer[i] = (uint8)name[i - byteCounter];
1031:Generated_Source\PSoC4/BLE_1.c ****                 }
1032:Generated_Source\PSoC4/BLE_1.c ****                 
1033:Generated_Source\PSoC4/BLE_1.c ****                 /* This loop handles the case when new local name is shorted than old one.
1034:Generated_Source\PSoC4/BLE_1.c ****                    In this case all remaining characters should be null characters. */
1035:Generated_Source\PSoC4/BLE_1.c ****                 while(adLength > i)
1036:Generated_Source\PSoC4/BLE_1.c ****                 {
ARM GAS  C:\Users\Harsha\AppData\Local\Temp\ccoVwJKe.s 			page 29


1037:Generated_Source\PSoC4/BLE_1.c ****                     /* Terminate string */
1038:Generated_Source\PSoC4/BLE_1.c ****                     destBuffer[i] = (uint8)CYBLE_NULL_CHARCTER;
1039:Generated_Source\PSoC4/BLE_1.c ****                     i++;
1040:Generated_Source\PSoC4/BLE_1.c ****                 }
1041:Generated_Source\PSoC4/BLE_1.c ****             }
1042:Generated_Source\PSoC4/BLE_1.c ****         }
1043:Generated_Source\PSoC4/BLE_1.c ****         
1044:Generated_Source\PSoC4/BLE_1.c **** #endif /* (CYBLE_GAP_ROLE_PERIPHERAL) */  
1045:Generated_Source\PSoC4/BLE_1.c ****     
1046:Generated_Source\PSoC4/BLE_1.c ****     
1047:Generated_Source\PSoC4/BLE_1.c ****     /******************************************************************************
1048:Generated_Source\PSoC4/BLE_1.c ****     * Function Name: CyBle_GapSetLocalName
1049:Generated_Source\PSoC4/BLE_1.c ****     ***************************************************************************//**
1050:Generated_Source\PSoC4/BLE_1.c ****     *  This API is used to set the local device name - a Characteristic of the 
1051:Generated_Source\PSoC4/BLE_1.c ****     *  GAP Service. If the characteristic length entered in the component customizer
1052:Generated_Source\PSoC4/BLE_1.c ****     *  is shorter than the string specified by the "name" parameter, the local device
1053:Generated_Source\PSoC4/BLE_1.c ****     *  name will be cut to the length specified in the customizer.
1054:Generated_Source\PSoC4/BLE_1.c ****     * 
1055:Generated_Source\PSoC4/BLE_1.c ****     *  \param char8 name: The local device name string. The name string to be written as
1056:Generated_Source\PSoC4/BLE_1.c ****     *              the local device name. It represents a UTF-8 encoded User
1057:Generated_Source\PSoC4/BLE_1.c ****     *              Friendly Descriptive Name for the device. The length of the local
1058:Generated_Source\PSoC4/BLE_1.c ****     *              device string is entered into the component customizer and it can
1059:Generated_Source\PSoC4/BLE_1.c ****     *              be set to a value from 0 to 248 bytes. If the name contained in
1060:Generated_Source\PSoC4/BLE_1.c ****     *              the parameter is shorter than the length from the customizer, the
1061:Generated_Source\PSoC4/BLE_1.c ****     *              end of the name is indicated by a NULL octet (0x00).
1062:Generated_Source\PSoC4/BLE_1.c ****     * 
1063:Generated_Source\PSoC4/BLE_1.c ****     * \return
1064:Generated_Source\PSoC4/BLE_1.c ****     *  CYBLE_API_RESULT_T : Return value indicates if the function succeeded or 
1065:Generated_Source\PSoC4/BLE_1.c ****     *  failed. Following are the possible error codes.
1066:Generated_Source\PSoC4/BLE_1.c ****     *
1067:Generated_Source\PSoC4/BLE_1.c ****     *   Errors codes                       | Description
1068:Generated_Source\PSoC4/BLE_1.c ****     *   ------------                       | -----------
1069:Generated_Source\PSoC4/BLE_1.c ****     *   CYBLE_ERROR_OK                     | Function completed successfully.
1070:Generated_Source\PSoC4/BLE_1.c ****     *   CYBLE_ERROR_INVALID_PARAMETER      | On specifying NULL as input parameter
1071:Generated_Source\PSoC4/BLE_1.c ****     *  
1072:Generated_Source\PSoC4/BLE_1.c ****     *******************************************************************************/
1073:Generated_Source\PSoC4/BLE_1.c ****     CYBLE_API_RESULT_T CyBle_GapSetLocalName(const char8 name[])
1074:Generated_Source\PSoC4/BLE_1.c ****     {
 539              		.loc 1 1074 0
 540              		.cfi_startproc
 541              	.LVL37:
 542 0000 10B5     		push	{r4, lr}
 543              		.cfi_def_cfa_offset 8
 544              		.cfi_offset 4, -8
 545              		.cfi_offset 14, -4
 546              	.LVL38:
1075:Generated_Source\PSoC4/BLE_1.c ****         CYBLE_API_RESULT_T apiResult = CYBLE_ERROR_OK;
1076:Generated_Source\PSoC4/BLE_1.c ****         uint8 i;
1077:Generated_Source\PSoC4/BLE_1.c ****         char8 *ptr;
1078:Generated_Source\PSoC4/BLE_1.c ****         uint8 charLen;
1079:Generated_Source\PSoC4/BLE_1.c **** 
1080:Generated_Source\PSoC4/BLE_1.c ****         if(NULL != name)
 547              		.loc 1 1080 0
 548 0002 0028     		cmp	r0, #0
 549 0004 15D0     		beq	.L44
1081:Generated_Source\PSoC4/BLE_1.c ****         {
1082:Generated_Source\PSoC4/BLE_1.c ****             /* Get the pointer to the Device Name characteristic  */
ARM GAS  C:\Users\Harsha\AppData\Local\Temp\ccoVwJKe.s 			page 30


1083:Generated_Source\PSoC4/BLE_1.c ****             ptr = (char8 *) CYBLE_GATT_DB_ATTR_GET_ATTR_GEN_PTR(CYBLE_GAP_DEVICE_NAME_INDEX + 1u);
 550              		.loc 1 1083 0
 551 0006 0D4B     		ldr	r3, .L46
 552 0008 9A6B     		ldr	r2, [r3, #56]
 553 000a 5468     		ldr	r4, [r2, #4]
 554              	.LVL39:
1084:Generated_Source\PSoC4/BLE_1.c **** 
1085:Generated_Source\PSoC4/BLE_1.c ****             /* First need to get the maximum length of the characteristic data in the GATT
1086:Generated_Source\PSoC4/BLE_1.c ****                 database to make sure there is enough place for the data. The length
1087:Generated_Source\PSoC4/BLE_1.c ****                 can't be longer than 248, so only the LSB of 16 bit of length is to
1088:Generated_Source\PSoC4/BLE_1.c ****                 be used. */
1089:Generated_Source\PSoC4/BLE_1.c ****             charLen = (uint8)CYBLE_GATT_DB_ATTR_GET_ATTR_GEN_MAX_LEN(CYBLE_GAP_DEVICE_NAME_INDEX + 
 555              		.loc 1 1089 0
 556 000c 998E     		ldrh	r1, [r3, #52]
 557 000e C9B2     		uxtb	r1, r1
 558              	.LVL40:
1090:Generated_Source\PSoC4/BLE_1.c **** 
1091:Generated_Source\PSoC4/BLE_1.c ****             /* Copy name into characteristic */
1092:Generated_Source\PSoC4/BLE_1.c ****             for(i = 0u; ((i < charLen) && (CYBLE_NULL_CHARCTER != name[i])); i++)
 559              		.loc 1 1092 0
 560 0010 0023     		mov	r3, #0
 561 0012 02E0     		b	.L41
 562              	.LVL41:
 563              	.L43:
1093:Generated_Source\PSoC4/BLE_1.c ****             {
1094:Generated_Source\PSoC4/BLE_1.c ****                 ptr[i] = name[i];
 564              		.loc 1 1094 0 discriminator 4
 565 0014 E254     		strb	r2, [r4, r3]
1092:Generated_Source\PSoC4/BLE_1.c ****             {
 566              		.loc 1 1092 0 discriminator 4
 567 0016 0133     		add	r3, r3, #1
 568              	.LVL42:
 569 0018 DBB2     		uxtb	r3, r3
 570              	.LVL43:
 571              	.L41:
1092:Generated_Source\PSoC4/BLE_1.c ****             {
 572              		.loc 1 1092 0 is_stmt 0 discriminator 1
 573 001a 8B42     		cmp	r3, r1
 574 001c 02D2     		bcs	.L42
1092:Generated_Source\PSoC4/BLE_1.c ****             {
 575              		.loc 1 1092 0 discriminator 3
 576 001e C25C     		ldrb	r2, [r0, r3]
 577 0020 002A     		cmp	r2, #0
 578 0022 F7D1     		bne	.L43
 579              	.L42:
1095:Generated_Source\PSoC4/BLE_1.c ****             }
1096:Generated_Source\PSoC4/BLE_1.c **** 
1097:Generated_Source\PSoC4/BLE_1.c ****             if(i < charLen)
 580              		.loc 1 1097 0 is_stmt 1
 581 0024 8B42     		cmp	r3, r1
 582 0026 06D2     		bcs	.L45
1098:Generated_Source\PSoC4/BLE_1.c ****             {
1099:Generated_Source\PSoC4/BLE_1.c ****                 /* Terminate string */
1100:Generated_Source\PSoC4/BLE_1.c ****                 ptr[i] = CYBLE_NULL_CHARCTER;
 583              		.loc 1 1100 0
 584 0028 E318     		add	r3, r4, r3
 585              	.LVL44:
ARM GAS  C:\Users\Harsha\AppData\Local\Temp\ccoVwJKe.s 			page 31


 586 002a 0022     		mov	r2, #0
 587 002c 1A70     		strb	r2, [r3]
1075:Generated_Source\PSoC4/BLE_1.c ****         uint8 i;
 588              		.loc 1 1075 0
 589 002e 0020     		mov	r0, #0
 590              	.LVL45:
 591 0030 02E0     		b	.L40
 592              	.LVL46:
 593              	.L44:
1101:Generated_Source\PSoC4/BLE_1.c ****             }
1102:Generated_Source\PSoC4/BLE_1.c ****             
1103:Generated_Source\PSoC4/BLE_1.c ****             /* Set new actual length */
1104:Generated_Source\PSoC4/BLE_1.c ****             
1105:Generated_Source\PSoC4/BLE_1.c ****             /* Update device name in advertising and scan response structure */
1106:Generated_Source\PSoC4/BLE_1.c ****             #if(CYBLE_GAP_ROLE_PERIPHERAL)
1107:Generated_Source\PSoC4/BLE_1.c ****                 CyBle_ChangeAdLocalName(name, 0u);
1108:Generated_Source\PSoC4/BLE_1.c ****                 CyBle_ChangeAdLocalName(name, 1u);
1109:Generated_Source\PSoC4/BLE_1.c ****             #endif /* (CYBLE_GAP_ROLE_PERIPHERAL) */
1110:Generated_Source\PSoC4/BLE_1.c ****         }
1111:Generated_Source\PSoC4/BLE_1.c ****         else
1112:Generated_Source\PSoC4/BLE_1.c ****         {
1113:Generated_Source\PSoC4/BLE_1.c ****             apiResult = CYBLE_ERROR_INVALID_PARAMETER;
 594              		.loc 1 1113 0
 595 0032 0120     		mov	r0, #1
 596              	.LVL47:
 597 0034 00E0     		b	.L40
 598              	.LVL48:
 599              	.L45:
1075:Generated_Source\PSoC4/BLE_1.c ****         uint8 i;
 600              		.loc 1 1075 0
 601 0036 0020     		mov	r0, #0
 602              	.LVL49:
 603              	.L40:
1114:Generated_Source\PSoC4/BLE_1.c ****         }
1115:Generated_Source\PSoC4/BLE_1.c ****         
1116:Generated_Source\PSoC4/BLE_1.c ****         return(apiResult);
1117:Generated_Source\PSoC4/BLE_1.c ****     }
 604              		.loc 1 1117 0
 605              		@ sp needed
 606 0038 10BD     		pop	{r4, pc}
 607              	.L47:
 608 003a C046     		.align	2
 609              	.L46:
 610 003c 00000000 		.word	cyBle_gattDB
 611              		.cfi_endproc
 612              	.LFE10:
 613              		.size	CyBle_GapSetLocalName, .-CyBle_GapSetLocalName
 614              		.section	.text.CyBle_GapGetLocalName,"ax",%progbits
 615              		.align	2
 616              		.global	CyBle_GapGetLocalName
 617              		.code	16
 618              		.thumb_func
 619              		.type	CyBle_GapGetLocalName, %function
 620              	CyBle_GapGetLocalName:
 621              	.LFB11:
1118:Generated_Source\PSoC4/BLE_1.c **** 
1119:Generated_Source\PSoC4/BLE_1.c **** 
ARM GAS  C:\Users\Harsha\AppData\Local\Temp\ccoVwJKe.s 			page 32


1120:Generated_Source\PSoC4/BLE_1.c ****     /******************************************************************************
1121:Generated_Source\PSoC4/BLE_1.c ****     * Function Name: CyBle_GapGetLocalName
1122:Generated_Source\PSoC4/BLE_1.c ****     ***************************************************************************//**
1123:Generated_Source\PSoC4/BLE_1.c ****     *  
1124:Generated_Source\PSoC4/BLE_1.c ****     *  This API is used to read the local device name - a Characteristic of the 
1125:Generated_Source\PSoC4/BLE_1.c ****     *  GAP Service.
1126:Generated_Source\PSoC4/BLE_1.c ****     * 
1127:Generated_Source\PSoC4/BLE_1.c ****     * \param char8 name: The local device name string. Used to read the local name to the
1128:Generated_Source\PSoC4/BLE_1.c ****     *             given string array. It represents a UTF-8 encoded User Friendly 
1129:Generated_Source\PSoC4/BLE_1.c ****     *             Descriptive Name for the device. The length of the local device
1130:Generated_Source\PSoC4/BLE_1.c ****     *             string is entered into the component customizer and it can be set
1131:Generated_Source\PSoC4/BLE_1.c ****     *             to a value from 0 to 248 bytes. If the name contained in the
1132:Generated_Source\PSoC4/BLE_1.c ****     *             parameter is shorter than the length from the customizer, the end
1133:Generated_Source\PSoC4/BLE_1.c ****     *             of the name is indicated by a NULL octet (0x00).
1134:Generated_Source\PSoC4/BLE_1.c ****     * 
1135:Generated_Source\PSoC4/BLE_1.c ****     * \return
1136:Generated_Source\PSoC4/BLE_1.c ****     *  CYBLE_API_RESULT_T : Return value indicates if the function succeeded or 
1137:Generated_Source\PSoC4/BLE_1.c ****     *  failed. Following are the possible error codes.
1138:Generated_Source\PSoC4/BLE_1.c ****     *
1139:Generated_Source\PSoC4/BLE_1.c ****     *   Errors codes                       | Description
1140:Generated_Source\PSoC4/BLE_1.c ****     *   ------------                       | -----------
1141:Generated_Source\PSoC4/BLE_1.c ****     *   CYBLE_ERROR_OK                     | Function completed successfully.
1142:Generated_Source\PSoC4/BLE_1.c ****     *   CYBLE_ERROR_INVALID_PARAMETER      | On specifying NULL as input parameter
1143:Generated_Source\PSoC4/BLE_1.c ****     *
1144:Generated_Source\PSoC4/BLE_1.c ****     *******************************************************************************/
1145:Generated_Source\PSoC4/BLE_1.c ****     CYBLE_API_RESULT_T CyBle_GapGetLocalName(char8 name[])
1146:Generated_Source\PSoC4/BLE_1.c ****     {
 622              		.loc 1 1146 0
 623              		.cfi_startproc
 624              	.LVL50:
 625 0000 10B5     		push	{r4, lr}
 626              		.cfi_def_cfa_offset 8
 627              		.cfi_offset 4, -8
 628              		.cfi_offset 14, -4
 629              	.LVL51:
1147:Generated_Source\PSoC4/BLE_1.c ****         CYBLE_API_RESULT_T apiResult = CYBLE_ERROR_OK;
1148:Generated_Source\PSoC4/BLE_1.c ****         uint8 charLen;
1149:Generated_Source\PSoC4/BLE_1.c ****         uint8 i;
1150:Generated_Source\PSoC4/BLE_1.c ****         char8 *ptr;
1151:Generated_Source\PSoC4/BLE_1.c **** 
1152:Generated_Source\PSoC4/BLE_1.c ****         if(NULL != name)
 630              		.loc 1 1152 0
 631 0002 0028     		cmp	r0, #0
 632 0004 12D0     		beq	.L53
1153:Generated_Source\PSoC4/BLE_1.c ****         {
1154:Generated_Source\PSoC4/BLE_1.c ****             /* Get the pointer to the Device Name characteristic  */
1155:Generated_Source\PSoC4/BLE_1.c ****             ptr = (char8 *) CYBLE_GATT_DB_ATTR_GET_ATTR_GEN_PTR(CYBLE_GAP_DEVICE_NAME_INDEX + 1u);
 633              		.loc 1 1155 0
 634 0006 0A4B     		ldr	r3, .L54
 635 0008 9B6B     		ldr	r3, [r3, #56]
 636 000a 5C68     		ldr	r4, [r3, #4]
 637              	.LVL52:
1156:Generated_Source\PSoC4/BLE_1.c **** 
1157:Generated_Source\PSoC4/BLE_1.c ****             /* First need to get the length of the characteristic data in the GATT
1158:Generated_Source\PSoC4/BLE_1.c ****                 database to make sure there is enough place for the data. The length
1159:Generated_Source\PSoC4/BLE_1.c ****                 can't be longer than 248, so only the LSB of 16 bit of length is to
1160:Generated_Source\PSoC4/BLE_1.c ****                 be used. */
ARM GAS  C:\Users\Harsha\AppData\Local\Temp\ccoVwJKe.s 			page 33


1161:Generated_Source\PSoC4/BLE_1.c ****             charLen = (uint8)CYBLE_GATT_DB_ATTR_GET_ATTR_GEN_LEN(CYBLE_GAP_DEVICE_NAME_INDEX + 1u);
 638              		.loc 1 1161 0
 639 000c 1978     		ldrb	r1, [r3]
 640              	.LVL53:
1162:Generated_Source\PSoC4/BLE_1.c **** 
1163:Generated_Source\PSoC4/BLE_1.c ****             /* Copy name from characteristic */
1164:Generated_Source\PSoC4/BLE_1.c ****             for(i = 0u; ((i < charLen) && (CYBLE_NULL_CHARCTER != ptr[i])); i++)
 641              		.loc 1 1164 0
 642 000e 0023     		mov	r3, #0
 643 0010 02E0     		b	.L50
 644              	.LVL54:
 645              	.L52:
1165:Generated_Source\PSoC4/BLE_1.c ****             {
1166:Generated_Source\PSoC4/BLE_1.c ****                 name[i] = ptr[i];
 646              		.loc 1 1166 0 discriminator 4
 647 0012 C254     		strb	r2, [r0, r3]
1164:Generated_Source\PSoC4/BLE_1.c ****             {
 648              		.loc 1 1164 0 discriminator 4
 649 0014 0133     		add	r3, r3, #1
 650              	.LVL55:
 651 0016 DBB2     		uxtb	r3, r3
 652              	.LVL56:
 653              	.L50:
1164:Generated_Source\PSoC4/BLE_1.c ****             {
 654              		.loc 1 1164 0 is_stmt 0 discriminator 1
 655 0018 8B42     		cmp	r3, r1
 656 001a 02D2     		bcs	.L51
1164:Generated_Source\PSoC4/BLE_1.c ****             {
 657              		.loc 1 1164 0 discriminator 3
 658 001c E25C     		ldrb	r2, [r4, r3]
 659 001e 002A     		cmp	r2, #0
 660 0020 F7D1     		bne	.L52
 661              	.L51:
1167:Generated_Source\PSoC4/BLE_1.c ****             }
1168:Generated_Source\PSoC4/BLE_1.c **** 
1169:Generated_Source\PSoC4/BLE_1.c ****             /* Terminate string */
1170:Generated_Source\PSoC4/BLE_1.c ****             name[i] = CYBLE_NULL_CHARCTER;
 662              		.loc 1 1170 0 is_stmt 1
 663 0022 C318     		add	r3, r0, r3
 664              	.LVL57:
 665 0024 0022     		mov	r2, #0
 666 0026 1A70     		strb	r2, [r3]
1147:Generated_Source\PSoC4/BLE_1.c ****         uint8 charLen;
 667              		.loc 1 1147 0
 668 0028 0020     		mov	r0, #0
 669              	.LVL58:
 670 002a 00E0     		b	.L49
 671              	.LVL59:
 672              	.L53:
1171:Generated_Source\PSoC4/BLE_1.c ****         }
1172:Generated_Source\PSoC4/BLE_1.c ****         else
1173:Generated_Source\PSoC4/BLE_1.c ****         {
1174:Generated_Source\PSoC4/BLE_1.c ****             apiResult = CYBLE_ERROR_INVALID_PARAMETER;
 673              		.loc 1 1174 0
 674 002c 0120     		mov	r0, #1
 675              	.LVL60:
 676              	.L49:
ARM GAS  C:\Users\Harsha\AppData\Local\Temp\ccoVwJKe.s 			page 34


1175:Generated_Source\PSoC4/BLE_1.c ****         }
1176:Generated_Source\PSoC4/BLE_1.c ****         
1177:Generated_Source\PSoC4/BLE_1.c ****         return(apiResult);
1178:Generated_Source\PSoC4/BLE_1.c ****     }
 677              		.loc 1 1178 0
 678              		@ sp needed
 679 002e 10BD     		pop	{r4, pc}
 680              	.L55:
 681              		.align	2
 682              	.L54:
 683 0030 00000000 		.word	cyBle_gattDB
 684              		.cfi_endproc
 685              	.LFE11:
 686              		.size	CyBle_GapGetLocalName, .-CyBle_GapGetLocalName
 687              		.section	.text.CyBle_Get16ByPtr,"ax",%progbits
 688              		.align	2
 689              		.global	CyBle_Get16ByPtr
 690              		.code	16
 691              		.thumb_func
 692              		.type	CyBle_Get16ByPtr, %function
 693              	CyBle_Get16ByPtr:
 694              	.LFB12:
1179:Generated_Source\PSoC4/BLE_1.c **** 
1180:Generated_Source\PSoC4/BLE_1.c **** #endif /* (CYBLE_GATT_ROLE_SERVER) */
1181:Generated_Source\PSoC4/BLE_1.c **** 
1182:Generated_Source\PSoC4/BLE_1.c **** 
1183:Generated_Source\PSoC4/BLE_1.c **** /******************************************************************************
1184:Generated_Source\PSoC4/BLE_1.c **** * Function Name: CyBle_Get16ByPtr
1185:Generated_Source\PSoC4/BLE_1.c **** ***************************************************************************//**
1186:Generated_Source\PSoC4/BLE_1.c **** * 
1187:Generated_Source\PSoC4/BLE_1.c **** *  Returns the two-bytes value by using a pointer to the LSB.
1188:Generated_Source\PSoC4/BLE_1.c **** * 
1189:Generated_Source\PSoC4/BLE_1.c **** *  \param uint8 * ptr: Pointer to the LSB of two-bytes data (little endian).
1190:Generated_Source\PSoC4/BLE_1.c **** * 
1191:Generated_Source\PSoC4/BLE_1.c **** *  \return
1192:Generated_Source\PSoC4/BLE_1.c **** *  uint16 value: Two-bytes data.
1193:Generated_Source\PSoC4/BLE_1.c **** * 
1194:Generated_Source\PSoC4/BLE_1.c **** ******************************************************************************/
1195:Generated_Source\PSoC4/BLE_1.c **** uint16 CyBle_Get16ByPtr(const uint8 ptr[])
1196:Generated_Source\PSoC4/BLE_1.c **** {
 695              		.loc 1 1196 0
 696              		.cfi_startproc
 697              	.LVL61:
1197:Generated_Source\PSoC4/BLE_1.c ****     return ((uint16) ptr[0u] | ((uint16) (((uint16) ptr[1u]) << 8u)));
 698              		.loc 1 1197 0
 699 0000 0378     		ldrb	r3, [r0]
 700 0002 4078     		ldrb	r0, [r0, #1]
 701              	.LVL62:
 702 0004 0002     		lsl	r0, r0, #8
 703 0006 1843     		orr	r0, r3
1198:Generated_Source\PSoC4/BLE_1.c **** }
 704              		.loc 1 1198 0
 705              		@ sp needed
 706 0008 7047     		bx	lr
 707              		.cfi_endproc
 708              	.LFE12:
 709              		.size	CyBle_Get16ByPtr, .-CyBle_Get16ByPtr
ARM GAS  C:\Users\Harsha\AppData\Local\Temp\ccoVwJKe.s 			page 35


 710 000a C046     		.section	.text.CyBle_Set16ByPtr,"ax",%progbits
 711              		.align	2
 712              		.global	CyBle_Set16ByPtr
 713              		.code	16
 714              		.thumb_func
 715              		.type	CyBle_Set16ByPtr, %function
 716              	CyBle_Set16ByPtr:
 717              	.LFB13:
1199:Generated_Source\PSoC4/BLE_1.c **** 
1200:Generated_Source\PSoC4/BLE_1.c **** 
1201:Generated_Source\PSoC4/BLE_1.c **** /******************************************************************************
1202:Generated_Source\PSoC4/BLE_1.c **** * Function Name: CyBle_Set16ByPtr
1203:Generated_Source\PSoC4/BLE_1.c **** ***************************************************************************//**
1204:Generated_Source\PSoC4/BLE_1.c **** * 
1205:Generated_Source\PSoC4/BLE_1.c **** *  Sets the two-bytes value by using a pointer to the LSB.
1206:Generated_Source\PSoC4/BLE_1.c **** * 
1207:Generated_Source\PSoC4/BLE_1.c **** *  \param uint8 * ptr:   Pointer to the LSB of two-bytes data (little endian).
1208:Generated_Source\PSoC4/BLE_1.c **** *  \param uint16 value:  Two-bytes data to be written.
1209:Generated_Source\PSoC4/BLE_1.c **** * 
1210:Generated_Source\PSoC4/BLE_1.c **** *  \return
1211:Generated_Source\PSoC4/BLE_1.c **** *  None
1212:Generated_Source\PSoC4/BLE_1.c **** * 
1213:Generated_Source\PSoC4/BLE_1.c **** ******************************************************************************/
1214:Generated_Source\PSoC4/BLE_1.c **** void CyBle_Set16ByPtr(uint8 ptr[], uint16 value)
1215:Generated_Source\PSoC4/BLE_1.c **** {
 718              		.loc 1 1215 0
 719              		.cfi_startproc
 720              	.LVL63:
1216:Generated_Source\PSoC4/BLE_1.c ****     ptr[0u] = (uint8) value;
 721              		.loc 1 1216 0
 722 0000 0170     		strb	r1, [r0]
1217:Generated_Source\PSoC4/BLE_1.c ****     ptr[1u] = (uint8) (value >> 8u);
 723              		.loc 1 1217 0
 724 0002 090A     		lsr	r1, r1, #8
 725              	.LVL64:
 726 0004 4170     		strb	r1, [r0, #1]
1218:Generated_Source\PSoC4/BLE_1.c **** }
 727              		.loc 1 1218 0
 728              		@ sp needed
 729 0006 7047     		bx	lr
 730              		.cfi_endproc
 731              	.LFE13:
 732              		.size	CyBle_Set16ByPtr, .-CyBle_Set16ByPtr
 733              		.global	cyBle_StackFlashptr
 734              		.global	cyBle_sflashDeviceAddress
 735              		.global	cyBle_deviceAddress
 736              		.comm	CyBle_ApplCallback,4,4
 737              		.global	cyBle_discoveryInfo
 738              		.comm	cyBle_connectingTimeout,2,2
 739              		.comm	cyBle_connectionParameters,26,4
 740              		.comm	cyBle_stackMemoryRam,2756,8
 741              		.global	cyBle_initVar
 742              		.section	.rodata
 743              		.align	7
 744              		.set	.LANCHOR1,. + 0
 745              	.LC0:
 746 0000 2400     		.short	36
ARM GAS  C:\Users\Harsha\AppData\Local\Temp\ccoVwJKe.s 			page 36


 747 0002 03       		.byte	3
 748 0003 00       		.space	1
 749 0004 1800     		.short	24
 750 0006 01       		.byte	1
 751 0007 00       		.space	1
 752 0008 3000     		.short	48
 753 000a 01       		.byte	1
 754 000b 00       		.space	1
 755 000c 4800     		.short	72
 756 000e 01       		.byte	1
 757 000f 00       		.space	1
 758 0010 2400     		.short	36
 759 0012 01       		.byte	1
 760 0013 00       		.space	1
 761 0014 2400     		.short	36
 762 0016 01       		.byte	1
 763 0017 00       		.space	1
 764 0018 00000000 		.space	104
 764      00000000 
 764      00000000 
 764      00000000 
 764      00000000 
 765              		.type	cyBle_StackFlashptr, %object
 766              		.size	cyBle_StackFlashptr, 365
 767              	cyBle_StackFlashptr:
 768 0080 00000000 		.space	365
 768      00000000 
 768      00000000 
 768      00000000 
 768      00000000 
 769 01ed 00000000 		.data
 769      00000000 
 769      00000000 
 769      00000000 
 769      000000
 770              		.align	2
 771              		.set	.LANCHOR0,. + 0
 772              		.type	cyBle_discoveryInfo, %object
 773              		.size	cyBle_discoveryInfo, 12
 774              	cyBle_discoveryInfo:
 775 0000 02       		.byte	2
 776 0001 01       		.byte	1
 777 0002 0800     		.short	8
 778 0004 0800     		.short	8
 779 0006 00       		.byte	0
 780 0007 00       		.byte	0
 781 0008 3C00     		.short	60
 782 000a 00       		.byte	0
 783 000b 00       		.space	1
 784              		.type	cyBle_sflashDeviceAddress, %object
 785              		.size	cyBle_sflashDeviceAddress, 4
 786              	cyBle_sflashDeviceAddress:
 787 000c 00F2FF0F 		.word	268431872
 788              		.type	cyBle_deviceAddress, %object
 789              		.size	cyBle_deviceAddress, 7
 790              	cyBle_deviceAddress:
 791 0010 00       		.byte	0
ARM GAS  C:\Users\Harsha\AppData\Local\Temp\ccoVwJKe.s 			page 37


 792 0011 00       		.byte	0
 793 0012 00       		.byte	0
 794 0013 50       		.byte	80
 795 0014 A0       		.byte	-96
 796 0015 00       		.byte	0
 797 0016 00       		.byte	0
 798 0017 00       		.bss
 799              		.set	.LANCHOR2,. + 0
 800              		.type	cyBle_initVar, %object
 801              		.size	cyBle_initVar, 1
 802              	cyBle_initVar:
 803 0000 00       		.space	1
 804              		.text
 805              	.Letext0:
 806              		.file 2 "Generated_Source\\PSoC4\\cytypes.h"
 807              		.file 3 "Generated_Source\\PSoC4\\BLE_1_Stack.h"
 808              		.file 4 "Generated_Source\\PSoC4\\BLE_1_StackGap.h"
 809              		.file 5 "Generated_Source\\PSoC4\\BLE_1_StackGatt.h"
 810              		.file 6 "Generated_Source\\PSoC4\\BLE_1_StackGattDb.h"
 811              		.file 7 "Generated_Source\\PSoC4\\BLE_1.h"
 812              		.file 8 "Generated_Source\\PSoC4\\BLE_1_gatt.h"
 813              		.file 9 "Generated_Source\\PSoC4\\BLE_1_eventHandler.h"
 814              		.file 10 "Generated_Source\\PSoC4\\BLE_1_custom.h"
 815              		.file 11 "Generated_Source\\PSoC4\\BLE_1_StackHostMain.h"