ARM GAS  C:\Users\Harsha\AppData\Local\Temp\cc7xy1yh.s 			page 1


   1              		.cpu cortex-m0
   2              		.fpu softvfp
   3              		.eabi_attribute 20, 1
   4              		.eabi_attribute 21, 1
   5              		.eabi_attribute 23, 3
   6              		.eabi_attribute 24, 1
   7              		.eabi_attribute 25, 1
   8              		.eabi_attribute 26, 1
   9              		.eabi_attribute 30, 1
  10              		.eabi_attribute 34, 0
  11              		.eabi_attribute 18, 4
  12              		.code	16
  13              		.file	"BLE_1_gatt.c"
  14              		.text
  15              	.Ltext0:
  16              		.cfi_sections	.debug_frame
  17              		.section	.text.CyBle_GattsReInitGattDb,"ax",%progbits
  18              		.align	2
  19              		.global	CyBle_GattsReInitGattDb
  20              		.code	16
  21              		.thumb_func
  22              		.type	CyBle_GattsReInitGattDb, %function
  23              	CyBle_GattsReInitGattDb:
  24              	.LFB2:
  25              		.file 1 "Generated_Source\\PSoC4\\BLE_1_gatt.c"
   1:Generated_Source\PSoC4/BLE_1_gatt.c **** /***************************************************************************//**
   2:Generated_Source\PSoC4/BLE_1_gatt.c **** * \file CYBLE_gatt.c
   3:Generated_Source\PSoC4/BLE_1_gatt.c **** * \version 2.20
   4:Generated_Source\PSoC4/BLE_1_gatt.c **** * 
   5:Generated_Source\PSoC4/BLE_1_gatt.c **** * \brief
   6:Generated_Source\PSoC4/BLE_1_gatt.c **** *  This file contains the source code for the GATT API of the BLE Component.
   7:Generated_Source\PSoC4/BLE_1_gatt.c **** * 
   8:Generated_Source\PSoC4/BLE_1_gatt.c **** ********************************************************************************
   9:Generated_Source\PSoC4/BLE_1_gatt.c **** * \copyright
  10:Generated_Source\PSoC4/BLE_1_gatt.c **** * Copyright 2014-2015, Cypress Semiconductor Corporation.  All rights reserved.
  11:Generated_Source\PSoC4/BLE_1_gatt.c **** * You may use this file only in accordance with the license, terms, conditions,
  12:Generated_Source\PSoC4/BLE_1_gatt.c **** * disclaimers, and limitations in the end user license agreement accompanying
  13:Generated_Source\PSoC4/BLE_1_gatt.c **** * the software package with which this file was provided.
  14:Generated_Source\PSoC4/BLE_1_gatt.c **** *******************************************************************************/
  15:Generated_Source\PSoC4/BLE_1_gatt.c **** 
  16:Generated_Source\PSoC4/BLE_1_gatt.c **** 
  17:Generated_Source\PSoC4/BLE_1_gatt.c **** #include "BLE_1_eventHandler.h"
  18:Generated_Source\PSoC4/BLE_1_gatt.c **** 
  19:Generated_Source\PSoC4/BLE_1_gatt.c **** 
  20:Generated_Source\PSoC4/BLE_1_gatt.c **** /***************************************
  21:Generated_Source\PSoC4/BLE_1_gatt.c **** * Global variables
  22:Generated_Source\PSoC4/BLE_1_gatt.c **** ***************************************/
  23:Generated_Source\PSoC4/BLE_1_gatt.c **** 
  24:Generated_Source\PSoC4/BLE_1_gatt.c **** CYBLE_STATE_T cyBle_state;
  25:Generated_Source\PSoC4/BLE_1_gatt.c **** 
  26:Generated_Source\PSoC4/BLE_1_gatt.c **** 
  27:Generated_Source\PSoC4/BLE_1_gatt.c **** #if(CYBLE_MODE_PROFILE)
  28:Generated_Source\PSoC4/BLE_1_gatt.c ****     #if defined(__ARMCC_VERSION)
  29:Generated_Source\PSoC4/BLE_1_gatt.c ****         CY_ALIGN(CYDEV_FLS_ROW_SIZE) const CY_BLE_FLASH_STORAGE cyBle_flashStorage CY_SECTION(".cy_
  30:Generated_Source\PSoC4/BLE_1_gatt.c ****     #elif defined (__GNUC__)
  31:Generated_Source\PSoC4/BLE_1_gatt.c ****         const CY_BLE_FLASH_STORAGE cyBle_flashStorage CY_SECTION(".cy_checksum_exclude")
  32:Generated_Source\PSoC4/BLE_1_gatt.c ****             CY_ALIGN(CYDEV_FLS_ROW_SIZE) =
ARM GAS  C:\Users\Harsha\AppData\Local\Temp\cc7xy1yh.s 			page 2


  33:Generated_Source\PSoC4/BLE_1_gatt.c ****     #elif defined (__ICCARM__)
  34:Generated_Source\PSoC4/BLE_1_gatt.c ****         #pragma data_alignment=CY_FLASH_SIZEOF_ROW
  35:Generated_Source\PSoC4/BLE_1_gatt.c ****         #pragma location=".cy_checksum_exclude"
  36:Generated_Source\PSoC4/BLE_1_gatt.c ****         const CY_BLE_FLASH_STORAGE cyBle_flashStorage =
  37:Generated_Source\PSoC4/BLE_1_gatt.c ****     #endif  /* (__ARMCC_VERSION) */
  38:Generated_Source\PSoC4/BLE_1_gatt.c ****     {
  39:Generated_Source\PSoC4/BLE_1_gatt.c ****         { 0x00u, 0x00u, 0x00u, 0x00u, 0x00u, 0x00u, 0x00u, 0x00u, 0x00u, 0x00u, 0x00u, 0x00u, 0x00u
  40:Generated_Source\PSoC4/BLE_1_gatt.c ****         0x00u, 0x00u, 0x00u, 0x00u, 0x00u, 0x00u, 0x00u, 0x00u, 0x00u, 0x00u, 0x00u, 0x00u, 0x00u, 
  41:Generated_Source\PSoC4/BLE_1_gatt.c ****         0x00u, 0x00u, 0x00u, 0x00u, 0x00u, 0x00u, 0x00u, 0x00u, 0x00u, 0x00u, 0x00u, 0x00u, 0x00u, 
  42:Generated_Source\PSoC4/BLE_1_gatt.c ****         0x00u, 0x00u, 0x00u, 0x00u, 0x00u, 0x00u, 0x00u, 0x00u, 0x00u, 0x00u, 0x00u, 0x00u, 0x00u, 
  43:Generated_Source\PSoC4/BLE_1_gatt.c ****         0x00u, 0x00u, 0x00u, 0x00u, 0x00u, 0x00u, 0x00u, 0x00u, 0x00u, 0x00u, 0x00u, 0x00u, 0x00u, 
  44:Generated_Source\PSoC4/BLE_1_gatt.c ****         0x00u, 0x00u, 0x00u, 0x00u, 0x00u, 0x00u, 0x00u, 0x00u, 0x00u, 0x00u, 0x00u, 0x00u, 0x00u, 
  45:Generated_Source\PSoC4/BLE_1_gatt.c ****         0x00u, 0x00u, 0x00u, 0x00u, 0x00u, 0x00u, 0x00u, 0x00u, 0x00u, 0x00u, 0x00u, 0x00u, 0x00u, 
  46:Generated_Source\PSoC4/BLE_1_gatt.c ****         0x00u, 0x00u, 0x00u, 0x00u, 0x00u, 0x00u, 0x00u, 0x00u, 0x00u, 0x00u, 0x00u, 0x00u, 0x00u, 
  47:Generated_Source\PSoC4/BLE_1_gatt.c ****         0x00u, 0x00u, 0x00u, 0x00u, 0x00u, 0x00u, 0x00u, 0x00u, 0x00u, 0x00u, 0x00u, 0x00u, 0x00u, 
  48:Generated_Source\PSoC4/BLE_1_gatt.c ****         0x00u, 0x00u, 0x00u, 0x00u, 0x00u, 0x00u, 0x00u, 0x00u, 0x00u, 0x00u, 0x00u, 0x00u, 0x00u, 
  49:Generated_Source\PSoC4/BLE_1_gatt.c ****         0x00u, 0x00u, 0x00u, 0x00u, 0x00u, 0x00u, 0x00u, 0x00u, 0x00u, 0x00u, 0x00u, 0x00u, 0x00u, 
  50:Generated_Source\PSoC4/BLE_1_gatt.c ****         0x00u, 0x00u, 0x00u, 0x00u, 0x00u, 0x00u, 0x00u, 0x00u, 0x00u, 0x00u, 0x00u, 0x00u, 0x00u, 
  51:Generated_Source\PSoC4/BLE_1_gatt.c ****         0x00u, 0x00u, 0x00u, 0x00u, 0x00u, 0x00u, 0x00u, 0x00u, 0x00u, 0x00u, 0x00u, 0x00u, 0x00u, 
  52:Generated_Source\PSoC4/BLE_1_gatt.c ****         0x00u, 0x00u, 0x00u, 0x00u, 0x00u, 0x00u, 0x00u, 0x00u, 0x00u, 0x00u, 0x00u, 0x00u, 0x00u, 
  53:Generated_Source\PSoC4/BLE_1_gatt.c ****         0x00u, 0x00u, 0x00u, 0x00u, 0x00u, 0x00u, 0x00u, 0x00u, 0x00u, 0x00u, 0x00u, 0x00u, 0x00u, 
  54:Generated_Source\PSoC4/BLE_1_gatt.c ****         0x00u, 0x00u, 0x00u, 0x00u, 0x00u, 0x00u, 0x00u, 0x00u, 0x00u, 0x00u, 0x00u, 0x00u, 0x00u, 
  55:Generated_Source\PSoC4/BLE_1_gatt.c ****         0x00u, 0x00u, 0x00u, 0x00u, 0x00u, 0x00u, 0x00u, 0x00u, 0x00u, 0x00u, 0x00u, 0x00u, 0x00u, 
  56:Generated_Source\PSoC4/BLE_1_gatt.c ****         0x00u, 0x00u, 0x00u, 0x00u, 0x00u, 0x00u, 0x00u, 0x00u, 0x00u, 0x00u, 0x00u, 0x00u, 0x00u, 
  57:Generated_Source\PSoC4/BLE_1_gatt.c ****         0x00u, 0x00u, 0x00u, 0x00u, 0x00u, 0x00u, 0x00u, 0x00u, 0x00u, 0x00u, 0x00u, 0x00u, 0x00u, 
  58:Generated_Source\PSoC4/BLE_1_gatt.c ****         0x00u, 0x00u, 0x00u, 0x00u, 0x00u, 0x00u, 0x00u, 0x00u, 0x00u, 0x00u, 0x00u, 0x00u, 0x00u, 
  59:Generated_Source\PSoC4/BLE_1_gatt.c ****         0x00u, 0x00u, 0x00u, 0x00u, 0x00u, 0x00u, 0x00u, 0x00u, 0x00u, 0x00u, 0x00u, 0x00u, 0x00u, 
  60:Generated_Source\PSoC4/BLE_1_gatt.c ****         0x00u, 0x00u, 0x00u, 0x00u, 0x00u, 0x00u, 0x00u, 0x00u, 0x00u, 0x00u, 0x00u, 0x00u, 0x00u, 
  61:Generated_Source\PSoC4/BLE_1_gatt.c ****         0x00u, 0x00u, 0x00u, 0x00u, 0x00u, 0x00u, 0x00u, 0x00u, 0x00u, 0x00u, 0x00u, 0x00u, 0x00u, 
  62:Generated_Source\PSoC4/BLE_1_gatt.c ****         {{
  63:Generated_Source\PSoC4/BLE_1_gatt.c ****             0x00u, 0x00u, 
  64:Generated_Source\PSoC4/BLE_1_gatt.c ****             0x00u, 0x00u, 
  65:Generated_Source\PSoC4/BLE_1_gatt.c ****         },
  66:Generated_Source\PSoC4/BLE_1_gatt.c ****         {
  67:Generated_Source\PSoC4/BLE_1_gatt.c ****             0x00u, 0x00u, 
  68:Generated_Source\PSoC4/BLE_1_gatt.c ****             0x00u, 0x00u, 
  69:Generated_Source\PSoC4/BLE_1_gatt.c ****         },
  70:Generated_Source\PSoC4/BLE_1_gatt.c ****         {
  71:Generated_Source\PSoC4/BLE_1_gatt.c ****             0x00u, 0x00u, 
  72:Generated_Source\PSoC4/BLE_1_gatt.c ****             0x00u, 0x00u, 
  73:Generated_Source\PSoC4/BLE_1_gatt.c ****         },
  74:Generated_Source\PSoC4/BLE_1_gatt.c ****         {
  75:Generated_Source\PSoC4/BLE_1_gatt.c ****             0x00u, 0x00u, 
  76:Generated_Source\PSoC4/BLE_1_gatt.c ****             0x00u, 0x00u, 
  77:Generated_Source\PSoC4/BLE_1_gatt.c ****         },
  78:Generated_Source\PSoC4/BLE_1_gatt.c ****         {
  79:Generated_Source\PSoC4/BLE_1_gatt.c ****             0x00u, 0x00u, 
  80:Generated_Source\PSoC4/BLE_1_gatt.c ****             0x00u, 0x00u, 
  81:Generated_Source\PSoC4/BLE_1_gatt.c ****         }}, 
  82:Generated_Source\PSoC4/BLE_1_gatt.c ****         0x04u, /* CYBLE_GATT_DB_CCCD_COUNT */ 
  83:Generated_Source\PSoC4/BLE_1_gatt.c ****         0x05u, /* CYBLE_GAP_MAX_BONDED_DEVICE */ 
  84:Generated_Source\PSoC4/BLE_1_gatt.c ****     };
  85:Generated_Source\PSoC4/BLE_1_gatt.c **** #endif /* (CYBLE_MODE_PROFILE) */
  86:Generated_Source\PSoC4/BLE_1_gatt.c **** 
  87:Generated_Source\PSoC4/BLE_1_gatt.c **** 
  88:Generated_Source\PSoC4/BLE_1_gatt.c **** #if(CYBLE_GATT_ROLE_SERVER)
  89:Generated_Source\PSoC4/BLE_1_gatt.c ****     
ARM GAS  C:\Users\Harsha\AppData\Local\Temp\cc7xy1yh.s 			page 3


  90:Generated_Source\PSoC4/BLE_1_gatt.c ****     const CYBLE_GATTS_T cyBle_gatts =
  91:Generated_Source\PSoC4/BLE_1_gatt.c **** {
  92:Generated_Source\PSoC4/BLE_1_gatt.c ****     0x0006u,    /* Handle of the GATT service */
  93:Generated_Source\PSoC4/BLE_1_gatt.c ****     0x0008u,    /* Handle of the Service Changed characteristic */
  94:Generated_Source\PSoC4/BLE_1_gatt.c ****     0x0009u,    /* Handle of the Client Characteristic Configuration descriptor */
  95:Generated_Source\PSoC4/BLE_1_gatt.c **** };
  96:Generated_Source\PSoC4/BLE_1_gatt.c ****     
  97:Generated_Source\PSoC4/BLE_1_gatt.c ****     static uint8 cyBle_attValues[0x1Cu] = {
  98:Generated_Source\PSoC4/BLE_1_gatt.c ****     /* Device Name */
  99:Generated_Source\PSoC4/BLE_1_gatt.c ****     (uint8)'C', (uint8)'l', (uint8)'i', (uint8)'e', (uint8)'n', (uint8)'t', (uint8)' ', (uint8)'B',
 100:Generated_Source\PSoC4/BLE_1_gatt.c **** 
 101:Generated_Source\PSoC4/BLE_1_gatt.c ****     /* Appearance */
 102:Generated_Source\PSoC4/BLE_1_gatt.c ****     0x00u, 0x00u, 
 103:Generated_Source\PSoC4/BLE_1_gatt.c **** 
 104:Generated_Source\PSoC4/BLE_1_gatt.c ****     /* Service Changed */
 105:Generated_Source\PSoC4/BLE_1_gatt.c ****     0x00u, 0x00u, 0x00u, 0x00u, 
 106:Generated_Source\PSoC4/BLE_1_gatt.c **** 
 107:Generated_Source\PSoC4/BLE_1_gatt.c ****     /* Custom Characteristic */
 108:Generated_Source\PSoC4/BLE_1_gatt.c ****     0x00u, 
 109:Generated_Source\PSoC4/BLE_1_gatt.c **** 
 110:Generated_Source\PSoC4/BLE_1_gatt.c ****     /* Server Characteristic Configuration */
 111:Generated_Source\PSoC4/BLE_1_gatt.c ****     0x00u, 0x00u, 
 112:Generated_Source\PSoC4/BLE_1_gatt.c **** 
 113:Generated_Source\PSoC4/BLE_1_gatt.c ****     /* Characteristic User Description */
 114:Generated_Source\PSoC4/BLE_1_gatt.c ****     (uint8)'O', (uint8)'n', (uint8)'O', (uint8)'f', (uint8)'f', (uint8)'D', (uint8)'a', (uint8)'t',
 115:Generated_Source\PSoC4/BLE_1_gatt.c **** 
 116:Generated_Source\PSoC4/BLE_1_gatt.c **** };
 117:Generated_Source\PSoC4/BLE_1_gatt.c **** uint8 cyBle_attValuesCCCD[CYBLE_GATT_DB_CCCD_COUNT];
 118:Generated_Source\PSoC4/BLE_1_gatt.c **** 
 119:Generated_Source\PSoC4/BLE_1_gatt.c **** const uint8 cyBle_attUuid128[][16u] = {
 120:Generated_Source\PSoC4/BLE_1_gatt.c ****     /* ONOffService */
 121:Generated_Source\PSoC4/BLE_1_gatt.c ****     { 0x20u, 0x13u, 0xB0u, 0xF9u, 0x05u, 0x08u, 0x00u, 0x00u, 0x08u, 0x00u, 0x01u, 0x00u, 0xBAu, 0x
 122:Generated_Source\PSoC4/BLE_1_gatt.c ****     /* Custom Characteristic */
 123:Generated_Source\PSoC4/BLE_1_gatt.c ****     { 0x20u, 0x13u, 0xB0u, 0xF9u, 0x05u, 0x08u, 0x00u, 0x00u, 0x08u, 0x00u, 0x01u, 0x00u, 0xBCu, 0x
 124:Generated_Source\PSoC4/BLE_1_gatt.c **** };
 125:Generated_Source\PSoC4/BLE_1_gatt.c **** 
 126:Generated_Source\PSoC4/BLE_1_gatt.c **** CYBLE_GATTS_ATT_GEN_VAL_LEN_T cyBle_attValuesLen[CYBLE_GATT_DB_ATT_VAL_COUNT] = {
 127:Generated_Source\PSoC4/BLE_1_gatt.c ****     { 0x000Au, (void *)&cyBle_attValues[0] }, /* Device Name */
 128:Generated_Source\PSoC4/BLE_1_gatt.c ****     { 0x0002u, (void *)&cyBle_attValues[10] }, /* Appearance */
 129:Generated_Source\PSoC4/BLE_1_gatt.c ****     { 0x0004u, (void *)&cyBle_attValues[12] }, /* Service Changed */
 130:Generated_Source\PSoC4/BLE_1_gatt.c ****     { 0x0002u, (void *)&cyBle_attValuesCCCD[0] }, /* Client Characteristic Configuration */
 131:Generated_Source\PSoC4/BLE_1_gatt.c ****     { 0x0010u, (void *)&cyBle_attUuid128[0] }, /* ONOffService UUID */
 132:Generated_Source\PSoC4/BLE_1_gatt.c ****     { 0x0010u, (void *)&cyBle_attUuid128[1] }, /* Custom Characteristic UUID */
 133:Generated_Source\PSoC4/BLE_1_gatt.c ****     { 0x0001u, (void *)&cyBle_attValues[16] }, /* Custom Characteristic */
 134:Generated_Source\PSoC4/BLE_1_gatt.c ****     { 0x0002u, (void *)&cyBle_attValuesCCCD[2] }, /* Client Characteristic Configuration */
 135:Generated_Source\PSoC4/BLE_1_gatt.c ****     { 0x0002u, (void *)&cyBle_attValues[17] }, /* Server Characteristic Configuration */
 136:Generated_Source\PSoC4/BLE_1_gatt.c ****     { 0x0009u, (void *)&cyBle_attValues[19] }, /* Characteristic User Description */
 137:Generated_Source\PSoC4/BLE_1_gatt.c **** };
 138:Generated_Source\PSoC4/BLE_1_gatt.c **** 
 139:Generated_Source\PSoC4/BLE_1_gatt.c **** const CYBLE_GATTS_DB_T cyBle_gattDB[0x0Fu] = {
 140:Generated_Source\PSoC4/BLE_1_gatt.c ****     { 0x0001u, 0x2800u /* Primary service                     */, 0x00000001u /*           */, 0x00
 141:Generated_Source\PSoC4/BLE_1_gatt.c ****     { 0x0002u, 0x2803u /* Characteristic                      */, 0x00000201u /* rd        */, 0x00
 142:Generated_Source\PSoC4/BLE_1_gatt.c ****     { 0x0003u, 0x2A00u /* Device Name                         */, 0x00000201u /* rd        */, 0x00
 143:Generated_Source\PSoC4/BLE_1_gatt.c ****     { 0x0004u, 0x2803u /* Characteristic                      */, 0x00000201u /* rd        */, 0x00
 144:Generated_Source\PSoC4/BLE_1_gatt.c ****     { 0x0005u, 0x2A01u /* Appearance                          */, 0x00000201u /* rd        */, 0x00
 145:Generated_Source\PSoC4/BLE_1_gatt.c ****     { 0x0006u, 0x2800u /* Primary service                     */, 0x00000001u /*           */, 0x00
 146:Generated_Source\PSoC4/BLE_1_gatt.c ****     { 0x0007u, 0x2803u /* Characteristic                      */, 0x00002201u /* rd,ind    */, 0x00
ARM GAS  C:\Users\Harsha\AppData\Local\Temp\cc7xy1yh.s 			page 4


 147:Generated_Source\PSoC4/BLE_1_gatt.c ****     { 0x0008u, 0x2A05u /* Service Changed                     */, 0x00002201u /* rd,ind    */, 0x00
 148:Generated_Source\PSoC4/BLE_1_gatt.c ****     { 0x0009u, 0x2902u /* Client Characteristic Configuration */, 0x00000A04u /* rd,wr     */, 0x00
 149:Generated_Source\PSoC4/BLE_1_gatt.c ****     { 0x000Au, 0x2800u /* Primary service                     */, 0x00080001u /*           */, 0x00
 150:Generated_Source\PSoC4/BLE_1_gatt.c ****     { 0x000Bu, 0x2803u /* Characteristic                      */, 0x00001301u /* br,rd,ntf */, 0x00
 151:Generated_Source\PSoC4/BLE_1_gatt.c ****     { 0x000Cu, 0xCBBCu /* Custom Characteristic               */, 0x00091301u /* br,rd,ntf */, 0x00
 152:Generated_Source\PSoC4/BLE_1_gatt.c ****     { 0x000Du, 0x2902u /* Client Characteristic Configuration */, 0x00010A04u /* rd,wr     */, 0x00
 153:Generated_Source\PSoC4/BLE_1_gatt.c ****     { 0x000Eu, 0x2903u /* Server Characteristic Configuration */, 0x00010A04u /* rd,wr     */, 0x00
 154:Generated_Source\PSoC4/BLE_1_gatt.c ****     { 0x000Fu, 0x2901u /* Characteristic User Description     */, 0x00010201u /* rd        */, 0x00
 155:Generated_Source\PSoC4/BLE_1_gatt.c **** };
 156:Generated_Source\PSoC4/BLE_1_gatt.c **** 
 157:Generated_Source\PSoC4/BLE_1_gatt.c **** 
 158:Generated_Source\PSoC4/BLE_1_gatt.c **** #endif /* (CYBLE_GATT_ROLE_SERVER) */
 159:Generated_Source\PSoC4/BLE_1_gatt.c **** 
 160:Generated_Source\PSoC4/BLE_1_gatt.c **** #if(CYBLE_GATT_ROLE_CLIENT)
 161:Generated_Source\PSoC4/BLE_1_gatt.c ****     
 162:Generated_Source\PSoC4/BLE_1_gatt.c **** CYBLE_CLIENT_STATE_T cyBle_clientState;
 163:Generated_Source\PSoC4/BLE_1_gatt.c **** CYBLE_GATTC_T cyBle_gattc;
 164:Generated_Source\PSoC4/BLE_1_gatt.c ****     
 165:Generated_Source\PSoC4/BLE_1_gatt.c **** #endif /* (CYBLE_GATT_ROLE_CLIENT) */
 166:Generated_Source\PSoC4/BLE_1_gatt.c **** 
 167:Generated_Source\PSoC4/BLE_1_gatt.c **** 
 168:Generated_Source\PSoC4/BLE_1_gatt.c **** #if(CYBLE_GATT_ROLE_SERVER)
 169:Generated_Source\PSoC4/BLE_1_gatt.c **** 
 170:Generated_Source\PSoC4/BLE_1_gatt.c **** /****************************************************************************** 
 171:Generated_Source\PSoC4/BLE_1_gatt.c **** * Function Name: CyBle_GattsReInitGattDb
 172:Generated_Source\PSoC4/BLE_1_gatt.c **** ***************************************************************************//**
 173:Generated_Source\PSoC4/BLE_1_gatt.c **** * 
 174:Generated_Source\PSoC4/BLE_1_gatt.c **** *  Reinitializes the GATT database.
 175:Generated_Source\PSoC4/BLE_1_gatt.c **** * 
 176:Generated_Source\PSoC4/BLE_1_gatt.c **** * \return
 177:Generated_Source\PSoC4/BLE_1_gatt.c **** *  CYBLE_API_RESULT_T: An API result states if the API succeeded or failed with
 178:Generated_Source\PSoC4/BLE_1_gatt.c **** *  error codes:
 179:Generated_Source\PSoC4/BLE_1_gatt.c **** *   * CYBLE_ERROR_OK: GATT database was reinitialized successfully
 180:Generated_Source\PSoC4/BLE_1_gatt.c **** *   * CYBLE_ERROR_INVALID_STATE: If the function is called in any state except
 181:Generated_Source\PSoC4/BLE_1_gatt.c **** *                                 CYBLE_STATE_DISCONNECTED.
 182:Generated_Source\PSoC4/BLE_1_gatt.c **** *   * Any of the CyBle_GattsDbRegister() stack API function return values.
 183:Generated_Source\PSoC4/BLE_1_gatt.c **** * 
 184:Generated_Source\PSoC4/BLE_1_gatt.c **** ******************************************************************************/
 185:Generated_Source\PSoC4/BLE_1_gatt.c **** CYBLE_API_RESULT_T CyBle_GattsReInitGattDb(void)
 186:Generated_Source\PSoC4/BLE_1_gatt.c **** {
  26              		.loc 1 186 0
  27              		.cfi_startproc
  28 0000 08B5     		push	{r3, lr}
  29              		.cfi_def_cfa_offset 8
  30              		.cfi_offset 3, -8
  31              		.cfi_offset 14, -4
 187:Generated_Source\PSoC4/BLE_1_gatt.c ****     CYBLE_API_RESULT_T apiResult;
 188:Generated_Source\PSoC4/BLE_1_gatt.c ****     
 189:Generated_Source\PSoC4/BLE_1_gatt.c ****     if(CYBLE_STATE_DISCONNECTED == CyBle_GetState())
  32              		.loc 1 189 0
  33 0002 064B     		ldr	r3, .L4
  34 0004 1B78     		ldrb	r3, [r3]
  35 0006 052B     		cmp	r3, #5
  36 0008 05D1     		bne	.L3
 190:Generated_Source\PSoC4/BLE_1_gatt.c ****     {
 191:Generated_Source\PSoC4/BLE_1_gatt.c ****         apiResult = CyBle_GattsDbRegister(cyBle_gattDB, CYBLE_GATT_DB_INDEX_COUNT, CYBLE_GATT_DB_MA
  37              		.loc 1 191 0
ARM GAS  C:\Users\Harsha\AppData\Local\Temp\cc7xy1yh.s 			page 5


  38 000a 0548     		ldr	r0, .L4+4
  39 000c 0F21     		mov	r1, #15
  40 000e 0A22     		mov	r2, #10
  41 0010 FFF7FEFF 		bl	CyBle_GattsDbRegister
  42              	.LVL0:
  43 0014 01E0     		b	.L2
  44              	.LVL1:
  45              	.L3:
 192:Generated_Source\PSoC4/BLE_1_gatt.c ****     }
 193:Generated_Source\PSoC4/BLE_1_gatt.c ****     else
 194:Generated_Source\PSoC4/BLE_1_gatt.c ****     {
 195:Generated_Source\PSoC4/BLE_1_gatt.c ****         apiResult = CYBLE_ERROR_INVALID_STATE;
  46              		.loc 1 195 0
  47 0016 0420     		mov	r0, #4
  48 0018 FF30     		add	r0, r0, #255
  49              	.L2:
  50              	.LVL2:
 196:Generated_Source\PSoC4/BLE_1_gatt.c ****     }
 197:Generated_Source\PSoC4/BLE_1_gatt.c ****     
 198:Generated_Source\PSoC4/BLE_1_gatt.c ****     return(apiResult);
 199:Generated_Source\PSoC4/BLE_1_gatt.c **** }
  51              		.loc 1 199 0
  52              		@ sp needed
  53 001a 08BD     		pop	{r3, pc}
  54              	.L5:
  55              		.align	2
  56              	.L4:
  57 001c 00000000 		.word	cyBle_state
  58 0020 00000000 		.word	.LANCHOR0
  59              		.cfi_endproc
  60              	.LFE2:
  61              		.size	CyBle_GattsReInitGattDb, .-CyBle_GattsReInitGattDb
  62              		.section	.text.CyBle_GattsWriteEventHandler,"ax",%progbits
  63              		.align	2
  64              		.global	CyBle_GattsWriteEventHandler
  65              		.code	16
  66              		.thumb_func
  67              		.type	CyBle_GattsWriteEventHandler, %function
  68              	CyBle_GattsWriteEventHandler:
  69              	.LFB3:
 200:Generated_Source\PSoC4/BLE_1_gatt.c **** 
 201:Generated_Source\PSoC4/BLE_1_gatt.c **** 
 202:Generated_Source\PSoC4/BLE_1_gatt.c **** /****************************************************************************** 
 203:Generated_Source\PSoC4/BLE_1_gatt.c **** * Function Name: CyBle_GattsWriteEventHandler
 204:Generated_Source\PSoC4/BLE_1_gatt.c **** ***************************************************************************//**
 205:Generated_Source\PSoC4/BLE_1_gatt.c **** * 
 206:Generated_Source\PSoC4/BLE_1_gatt.c **** *  Handles the Write Request Event for GATT service.
 207:Generated_Source\PSoC4/BLE_1_gatt.c **** * 
 208:Generated_Source\PSoC4/BLE_1_gatt.c **** *  \param *eventParam: The pointer to the data structure specified by the event.
 209:Generated_Source\PSoC4/BLE_1_gatt.c **** * 
 210:Generated_Source\PSoC4/BLE_1_gatt.c **** * \return
 211:Generated_Source\PSoC4/BLE_1_gatt.c **** *  * CYBLE_GATT_ERR_CODE_T: An API result returns one of the following status 
 212:Generated_Source\PSoC4/BLE_1_gatt.c **** *     values
 213:Generated_Source\PSoC4/BLE_1_gatt.c **** *  * CYBLE_GATT_ERR_NONE - Write is successful.
 214:Generated_Source\PSoC4/BLE_1_gatt.c **** * 
 215:Generated_Source\PSoC4/BLE_1_gatt.c **** ******************************************************************************/
 216:Generated_Source\PSoC4/BLE_1_gatt.c **** CYBLE_GATT_ERR_CODE_T CyBle_GattsWriteEventHandler(CYBLE_GATTS_WRITE_REQ_PARAM_T *eventParam)
ARM GAS  C:\Users\Harsha\AppData\Local\Temp\cc7xy1yh.s 			page 6


 217:Generated_Source\PSoC4/BLE_1_gatt.c **** {
  70              		.loc 1 217 0
  71              		.cfi_startproc
  72              	.LVL3:
  73 0000 38B5     		push	{r3, r4, r5, lr}
  74              		.cfi_def_cfa_offset 16
  75              		.cfi_offset 3, -16
  76              		.cfi_offset 4, -12
  77              		.cfi_offset 5, -8
  78              		.cfi_offset 14, -4
  79              	.LVL4:
 218:Generated_Source\PSoC4/BLE_1_gatt.c ****     CYBLE_GATT_ERR_CODE_T gattErr = CYBLE_GATT_ERR_NONE;
 219:Generated_Source\PSoC4/BLE_1_gatt.c ****     
 220:Generated_Source\PSoC4/BLE_1_gatt.c ****     /* Client Characteristic Configuration descriptor write request */
 221:Generated_Source\PSoC4/BLE_1_gatt.c ****     if(eventParam->handleValPair.attrHandle == cyBle_gatts.cccdHandle)
  80              		.loc 1 221 0
  81 0002 8389     		ldrh	r3, [r0, #12]
  82 0004 092B     		cmp	r3, #9
  83 0006 20D1     		bne	.L10
  84 0008 041C     		mov	r4, r0
 222:Generated_Source\PSoC4/BLE_1_gatt.c ****     {
 223:Generated_Source\PSoC4/BLE_1_gatt.c ****         /* Store value to database */
 224:Generated_Source\PSoC4/BLE_1_gatt.c ****         gattErr = CyBle_GattsWriteAttributeValue(&eventParam->handleValPair, 0u, 
  85              		.loc 1 224 0
  86 000a 0430     		add	r0, r0, #4
  87              	.LVL5:
  88 000c 0021     		mov	r1, #0
  89 000e 221C     		mov	r2, r4
  90 0010 3733     		add	r3, r3, #55
  91 0012 FFF7FEFF 		bl	CyBle_GattsWriteAttributeValue
  92              	.LVL6:
  93 0016 051E     		sub	r5, r0, #0
  94              	.LVL7:
 225:Generated_Source\PSoC4/BLE_1_gatt.c ****                         &eventParam->connHandle, CYBLE_GATT_DB_PEER_INITIATED);
 226:Generated_Source\PSoC4/BLE_1_gatt.c ****         
 227:Generated_Source\PSoC4/BLE_1_gatt.c ****         if(CYBLE_GATT_ERR_NONE == gattErr)
  95              		.loc 1 227 0
  96 0018 11D1     		bne	.L8
 228:Generated_Source\PSoC4/BLE_1_gatt.c ****         {
 229:Generated_Source\PSoC4/BLE_1_gatt.c ****             if(CYBLE_IS_INDICATION_ENABLED_IN_PTR(eventParam->handleValPair.value.val))
  97              		.loc 1 229 0
  98 001a 6068     		ldr	r0, [r4, #4]
  99              	.LVL8:
 100 001c FFF7FEFF 		bl	CyBle_Get16ByPtr
 101              	.LVL9:
 102 0020 8307     		lsl	r3, r0, #30
 103 0022 06D5     		bpl	.L9
 230:Generated_Source\PSoC4/BLE_1_gatt.c ****             {
 231:Generated_Source\PSoC4/BLE_1_gatt.c ****                 CyBle_ApplCallback((uint32)CYBLE_EVT_GATTS_INDICATION_ENABLED, eventParam);
 104              		.loc 1 231 0
 105 0024 0A4B     		ldr	r3, .L11
 106 0026 1B68     		ldr	r3, [r3]
 107 0028 8220     		mov	r0, #130
 108 002a 4000     		lsl	r0, r0, #1
 109 002c 211C     		mov	r1, r4
 110 002e 9847     		blx	r3
 111              	.LVL10:
ARM GAS  C:\Users\Harsha\AppData\Local\Temp\cc7xy1yh.s 			page 7


 112 0030 05E0     		b	.L8
 113              	.L9:
 232:Generated_Source\PSoC4/BLE_1_gatt.c ****             }
 233:Generated_Source\PSoC4/BLE_1_gatt.c ****             else
 234:Generated_Source\PSoC4/BLE_1_gatt.c ****             {
 235:Generated_Source\PSoC4/BLE_1_gatt.c ****                 CyBle_ApplCallback((uint32)CYBLE_EVT_GATTS_INDICATION_DISABLED, eventParam);
 114              		.loc 1 235 0
 115 0032 074B     		ldr	r3, .L11
 116 0034 1B68     		ldr	r3, [r3]
 117 0036 0620     		mov	r0, #6
 118 0038 FF30     		add	r0, r0, #255
 119 003a 211C     		mov	r1, r4
 120 003c 9847     		blx	r3
 121              	.LVL11:
 122              	.L8:
 236:Generated_Source\PSoC4/BLE_1_gatt.c ****             }
 237:Generated_Source\PSoC4/BLE_1_gatt.c ****         }
 238:Generated_Source\PSoC4/BLE_1_gatt.c ****         cyBle_eventHandlerFlag &= (uint8)~CYBLE_CALLBACK;
 123              		.loc 1 238 0
 124 003e 054A     		ldr	r2, .L11+4
 125 0040 1378     		ldrb	r3, [r2]
 126 0042 0121     		mov	r1, #1
 127 0044 8B43     		bic	r3, r1
 128 0046 1370     		strb	r3, [r2]
 129 0048 00E0     		b	.L7
 130              	.LVL12:
 131              	.L10:
 218:Generated_Source\PSoC4/BLE_1_gatt.c ****     
 132              		.loc 1 218 0
 133 004a 0025     		mov	r5, #0
 134              	.LVL13:
 135              	.L7:
 239:Generated_Source\PSoC4/BLE_1_gatt.c ****     }
 240:Generated_Source\PSoC4/BLE_1_gatt.c ****     return (gattErr);
 241:Generated_Source\PSoC4/BLE_1_gatt.c **** }
 136              		.loc 1 241 0
 137 004c 281C     		mov	r0, r5
 138              		@ sp needed
 139              	.LVL14:
 140 004e 38BD     		pop	{r3, r4, r5, pc}
 141              	.L12:
 142              		.align	2
 143              	.L11:
 144 0050 00000000 		.word	CyBle_ApplCallback
 145 0054 00000000 		.word	cyBle_eventHandlerFlag
 146              		.cfi_endproc
 147              	.LFE3:
 148              		.size	CyBle_GattsWriteEventHandler, .-CyBle_GattsWriteEventHandler
 149              		.section	.text.CyBle_GattcStartDiscovery,"ax",%progbits
 150              		.align	2
 151              		.global	CyBle_GattcStartDiscovery
 152              		.code	16
 153              		.thumb_func
 154              		.type	CyBle_GattcStartDiscovery, %function
 155              	CyBle_GattcStartDiscovery:
 156              	.LFB4:
 242:Generated_Source\PSoC4/BLE_1_gatt.c **** 
ARM GAS  C:\Users\Harsha\AppData\Local\Temp\cc7xy1yh.s 			page 8


 243:Generated_Source\PSoC4/BLE_1_gatt.c **** 
 244:Generated_Source\PSoC4/BLE_1_gatt.c **** #endif /* (CYBLE_GATT_ROLE_SERVER) */
 245:Generated_Source\PSoC4/BLE_1_gatt.c **** 
 246:Generated_Source\PSoC4/BLE_1_gatt.c **** #if(CYBLE_GATT_ROLE_CLIENT)
 247:Generated_Source\PSoC4/BLE_1_gatt.c **** 
 248:Generated_Source\PSoC4/BLE_1_gatt.c **** 
 249:Generated_Source\PSoC4/BLE_1_gatt.c **** /****************************************************************************** 
 250:Generated_Source\PSoC4/BLE_1_gatt.c **** * Function Name: CyBle_GattcStartDiscovery
 251:Generated_Source\PSoC4/BLE_1_gatt.c **** ***************************************************************************//**
 252:Generated_Source\PSoC4/BLE_1_gatt.c **** * 
 253:Generated_Source\PSoC4/BLE_1_gatt.c **** *  Starts the automatic server discovery process. Two events may be generated 
 254:Generated_Source\PSoC4/BLE_1_gatt.c **** *  after calling this function - CYBLE_EVT_GATTC_DISCOVERY_COMPLETE or 
 255:Generated_Source\PSoC4/BLE_1_gatt.c **** *  CYBLE_EVT_GATTC_ERROR_RSP. The CYBLE_EVT_GATTC_DISCOVERY_COMPLETE event is 
 256:Generated_Source\PSoC4/BLE_1_gatt.c **** *  generated when the remote device was successfully discovered. The
 257:Generated_Source\PSoC4/BLE_1_gatt.c **** *  CYBLE_EVT_GATTC_ERROR_RSP is generated if the device discovery is failed.
 258:Generated_Source\PSoC4/BLE_1_gatt.c **** * 
 259:Generated_Source\PSoC4/BLE_1_gatt.c **** *  \param connHandle: The handle which consists of the device ID and ATT connection ID.
 260:Generated_Source\PSoC4/BLE_1_gatt.c **** * 
 261:Generated_Source\PSoC4/BLE_1_gatt.c **** * \return
 262:Generated_Source\PSoC4/BLE_1_gatt.c **** *	CYBLE_API_RESULT_T : Return value indicates if the function succeeded or
 263:Generated_Source\PSoC4/BLE_1_gatt.c **** *                        failed. Following are the possible error codes.
 264:Generated_Source\PSoC4/BLE_1_gatt.c **** *
 265:Generated_Source\PSoC4/BLE_1_gatt.c **** *   <table>	
 266:Generated_Source\PSoC4/BLE_1_gatt.c **** *   <tr>
 267:Generated_Source\PSoC4/BLE_1_gatt.c **** *	  <th>Errors codes</th>
 268:Generated_Source\PSoC4/BLE_1_gatt.c **** *	  <th>Description</th>
 269:Generated_Source\PSoC4/BLE_1_gatt.c **** *	</tr>
 270:Generated_Source\PSoC4/BLE_1_gatt.c **** *	<tr>
 271:Generated_Source\PSoC4/BLE_1_gatt.c **** *	  <td>CYBLE_ERROR_OK</td>
 272:Generated_Source\PSoC4/BLE_1_gatt.c **** *	  <td>On successful operation</td>
 273:Generated_Source\PSoC4/BLE_1_gatt.c **** *	</tr>
 274:Generated_Source\PSoC4/BLE_1_gatt.c **** *	<tr>
 275:Generated_Source\PSoC4/BLE_1_gatt.c **** *	  <td>CYBLE_ERROR_INVALID_PARAMETER</td>
 276:Generated_Source\PSoC4/BLE_1_gatt.c **** *	  <td>'connHandle' value does not represent any existing entry.</td>
 277:Generated_Source\PSoC4/BLE_1_gatt.c **** *	</tr>
 278:Generated_Source\PSoC4/BLE_1_gatt.c **** *	<tr>
 279:Generated_Source\PSoC4/BLE_1_gatt.c **** *	  <td>CYBLE_ERROR_INVALID_OPERATION</td>
 280:Generated_Source\PSoC4/BLE_1_gatt.c **** *	  <td>The operation is not permitted</td>
 281:Generated_Source\PSoC4/BLE_1_gatt.c **** *	</tr>
 282:Generated_Source\PSoC4/BLE_1_gatt.c **** *   <tr>
 283:Generated_Source\PSoC4/BLE_1_gatt.c **** *	  <td>CYBLE_ERROR_MEMORY_ALLOCATION_FAILED</td>
 284:Generated_Source\PSoC4/BLE_1_gatt.c **** *	  <td>Memory allocation failed</td>
 285:Generated_Source\PSoC4/BLE_1_gatt.c **** *	</tr>
 286:Generated_Source\PSoC4/BLE_1_gatt.c **** *   </table>
 287:Generated_Source\PSoC4/BLE_1_gatt.c **** * 
 288:Generated_Source\PSoC4/BLE_1_gatt.c **** ******************************************************************************/
 289:Generated_Source\PSoC4/BLE_1_gatt.c **** CYBLE_API_RESULT_T CyBle_GattcStartDiscovery(CYBLE_CONN_HANDLE_T connHandle)
 290:Generated_Source\PSoC4/BLE_1_gatt.c **** {
 157              		.loc 1 290 0
 158              		.cfi_startproc
 159 0000 00B5     		push	{lr}
 160              		.cfi_def_cfa_offset 4
 161              		.cfi_offset 14, -4
 162 0002 83B0     		sub	sp, sp, #12
 163              		.cfi_def_cfa_offset 16
 164 0004 01AB     		add	r3, sp, #4
 165 0006 1880     		strh	r0, [r3]
ARM GAS  C:\Users\Harsha\AppData\Local\Temp\cc7xy1yh.s 			page 9


 291:Generated_Source\PSoC4/BLE_1_gatt.c ****     uint8 j;
 292:Generated_Source\PSoC4/BLE_1_gatt.c ****     CYBLE_API_RESULT_T apiResult;
 293:Generated_Source\PSoC4/BLE_1_gatt.c ****     
 294:Generated_Source\PSoC4/BLE_1_gatt.c ****     if(CYBLE_STATE_CONNECTED != CyBle_GetState())
 166              		.loc 1 294 0
 167 0008 154B     		ldr	r3, .L18
 168 000a 1B78     		ldrb	r3, [r3]
 169 000c 022B     		cmp	r3, #2
 170 000e 22D1     		bne	.L17
 295:Generated_Source\PSoC4/BLE_1_gatt.c ****     {
 296:Generated_Source\PSoC4/BLE_1_gatt.c ****         apiResult = CYBLE_ERROR_INVALID_STATE;
 297:Generated_Source\PSoC4/BLE_1_gatt.c ****     }
 298:Generated_Source\PSoC4/BLE_1_gatt.c ****     else
 299:Generated_Source\PSoC4/BLE_1_gatt.c ****     {
 300:Generated_Source\PSoC4/BLE_1_gatt.c ****         CyBle_ServiceInit();
 171              		.loc 1 300 0
 172 0010 FFF7FEFF 		bl	CyBle_ServiceInit
 173              	.LVL15:
 301:Generated_Source\PSoC4/BLE_1_gatt.c ****         
 302:Generated_Source\PSoC4/BLE_1_gatt.c ****         cyBle_connHandle = connHandle;
 174              		.loc 1 302 0
 175 0014 1348     		ldr	r0, .L18+4
 176 0016 01A9     		add	r1, sp, #4
 177 0018 0222     		mov	r2, #2
 178 001a FFF7FEFF 		bl	memcpy
 179              	.LVL16:
 303:Generated_Source\PSoC4/BLE_1_gatt.c **** 
 304:Generated_Source\PSoC4/BLE_1_gatt.c ****         /* Clean old discovery information */
 305:Generated_Source\PSoC4/BLE_1_gatt.c ****         for(j = 0u; j < (uint8) CYBLE_SRVI_COUNT; j++)
 180              		.loc 1 305 0
 181 001e 0023     		mov	r3, #0
 182 0020 09E0     		b	.L15
 183              	.LVL17:
 184              	.L16:
 306:Generated_Source\PSoC4/BLE_1_gatt.c ****         {
 307:Generated_Source\PSoC4/BLE_1_gatt.c ****             (void)memset(&cyBle_serverInfo[j].range, 0, sizeof(cyBle_serverInfo[0].range));
 185              		.loc 1 307 0 discriminator 3
 186 0022 5A00     		lsl	r2, r3, #1
 187 0024 D218     		add	r2, r2, r3
 188 0026 5200     		lsl	r2, r2, #1
 189 0028 0F49     		ldr	r1, .L18+8
 190 002a 5218     		add	r2, r2, r1
 191 002c 0021     		mov	r1, #0
 192 002e 1180     		strh	r1, [r2]
 193 0030 5180     		strh	r1, [r2, #2]
 305:Generated_Source\PSoC4/BLE_1_gatt.c ****         {
 194              		.loc 1 305 0 discriminator 3
 195 0032 0133     		add	r3, r3, #1
 196              	.LVL18:
 197 0034 DBB2     		uxtb	r3, r3
 198              	.LVL19:
 199              	.L15:
 305:Generated_Source\PSoC4/BLE_1_gatt.c ****         {
 200              		.loc 1 305 0 is_stmt 0 discriminator 1
 201 0036 022B     		cmp	r3, #2
 202 0038 F3D9     		bls	.L16
 308:Generated_Source\PSoC4/BLE_1_gatt.c ****         }
ARM GAS  C:\Users\Harsha\AppData\Local\Temp\cc7xy1yh.s 			page 10


 309:Generated_Source\PSoC4/BLE_1_gatt.c **** 
 310:Generated_Source\PSoC4/BLE_1_gatt.c ****         apiResult = CyBle_GattcDiscoverAllPrimaryServices(connHandle);
 203              		.loc 1 310 0 is_stmt 1
 204 003a 0198     		ldr	r0, [sp, #4]
 205 003c FFF7FEFF 		bl	CyBle_GattcDiscoverAllPrimaryServices
 206              	.LVL20:
 311:Generated_Source\PSoC4/BLE_1_gatt.c **** 
 312:Generated_Source\PSoC4/BLE_1_gatt.c ****         if(CYBLE_ERROR_OK == apiResult)
 207              		.loc 1 312 0
 208 0040 0028     		cmp	r0, #0
 209 0042 0AD1     		bne	.L14
 313:Generated_Source\PSoC4/BLE_1_gatt.c ****         {
 314:Generated_Source\PSoC4/BLE_1_gatt.c ****             CyBle_SetClientState(CYBLE_CLIENT_STATE_SRVC_DISCOVERING);
 210              		.loc 1 314 0
 211 0044 0122     		mov	r2, #1
 212 0046 094B     		ldr	r3, .L18+12
 213 0048 1A70     		strb	r2, [r3]
 315:Generated_Source\PSoC4/BLE_1_gatt.c ****             cyBle_eventHandlerFlag |= CYBLE_AUTO_DISCOVERY;
 214              		.loc 1 315 0
 215 004a 094A     		ldr	r2, .L18+16
 216 004c 1178     		ldrb	r1, [r2]
 217 004e 0223     		mov	r3, #2
 218 0050 0B43     		orr	r3, r1
 219 0052 1370     		strb	r3, [r2]
 220 0054 01E0     		b	.L14
 221              	.LVL21:
 222              	.L17:
 296:Generated_Source\PSoC4/BLE_1_gatt.c ****     }
 223              		.loc 1 296 0
 224 0056 0420     		mov	r0, #4
 225 0058 FF30     		add	r0, r0, #255
 226              	.L14:
 227              	.LVL22:
 316:Generated_Source\PSoC4/BLE_1_gatt.c ****         }
 317:Generated_Source\PSoC4/BLE_1_gatt.c ****     }
 318:Generated_Source\PSoC4/BLE_1_gatt.c ****     
 319:Generated_Source\PSoC4/BLE_1_gatt.c ****     return (apiResult);
 320:Generated_Source\PSoC4/BLE_1_gatt.c **** }
 228              		.loc 1 320 0
 229 005a 03B0     		add	sp, sp, #12
 230              		@ sp needed
 231 005c 00BD     		pop	{pc}
 232              	.L19:
 233 005e C046     		.align	2
 234              	.L18:
 235 0060 00000000 		.word	cyBle_state
 236 0064 00000000 		.word	cyBle_connHandle
 237 0068 00000000 		.word	cyBle_serverInfo
 238 006c 00000000 		.word	cyBle_clientState
 239 0070 00000000 		.word	cyBle_eventHandlerFlag
 240              		.cfi_endproc
 241              	.LFE4:
 242              		.size	CyBle_GattcStartDiscovery, .-CyBle_GattcStartDiscovery
 243              		.section	.text.CyBle_GattcDiscoverCharacteristicsEventHandler,"ax",%progbits
 244              		.align	2
 245              		.global	CyBle_GattcDiscoverCharacteristicsEventHandler
 246              		.code	16
ARM GAS  C:\Users\Harsha\AppData\Local\Temp\cc7xy1yh.s 			page 11


 247              		.thumb_func
 248              		.type	CyBle_GattcDiscoverCharacteristicsEventHandler, %function
 249              	CyBle_GattcDiscoverCharacteristicsEventHandler:
 250              	.LFB5:
 321:Generated_Source\PSoC4/BLE_1_gatt.c **** 
 322:Generated_Source\PSoC4/BLE_1_gatt.c **** 
 323:Generated_Source\PSoC4/BLE_1_gatt.c **** /******************************************************************************
 324:Generated_Source\PSoC4/BLE_1_gatt.c **** * Function Name: CyBle_GattcDiscoverCharacteristicsEventHandler
 325:Generated_Source\PSoC4/BLE_1_gatt.c **** ***************************************************************************//**
 326:Generated_Source\PSoC4/BLE_1_gatt.c **** * 
 327:Generated_Source\PSoC4/BLE_1_gatt.c **** *  This function is called on receiving a "CYBLE_EVT_GATTC_READ_BY_TYPE_RSP"
 328:Generated_Source\PSoC4/BLE_1_gatt.c **** *  event. Based on the service UUID, an appropriate data structure is populated
 329:Generated_Source\PSoC4/BLE_1_gatt.c **** *  using the data received as part of the callback.
 330:Generated_Source\PSoC4/BLE_1_gatt.c **** * 
 331:Generated_Source\PSoC4/BLE_1_gatt.c **** *  \param *discCharInfo: The pointer to a characteristic information structure.
 332:Generated_Source\PSoC4/BLE_1_gatt.c **** * 
 333:Generated_Source\PSoC4/BLE_1_gatt.c **** * \return
 334:Generated_Source\PSoC4/BLE_1_gatt.c **** *  None
 335:Generated_Source\PSoC4/BLE_1_gatt.c **** * 
 336:Generated_Source\PSoC4/BLE_1_gatt.c **** ******************************************************************************/
 337:Generated_Source\PSoC4/BLE_1_gatt.c **** void CyBle_GattcDiscoverCharacteristicsEventHandler(CYBLE_DISC_CHAR_INFO_T *discCharInfo)
 338:Generated_Source\PSoC4/BLE_1_gatt.c **** {
 251              		.loc 1 338 0
 252              		.cfi_startproc
 253              	.LVL23:
 254 0000 08B5     		push	{r3, lr}
 255              		.cfi_def_cfa_offset 8
 256              		.cfi_offset 3, -8
 257              		.cfi_offset 14, -4
 339:Generated_Source\PSoC4/BLE_1_gatt.c ****     if(discCharInfo->uuid.uuid16 == CYBLE_UUID_CHAR_SERVICE_CHANGED)
 258              		.loc 1 339 0
 259 0002 C288     		ldrh	r2, [r0, #6]
 260 0004 094B     		ldr	r3, .L23
 261 0006 9A42     		cmp	r2, r3
 262 0008 0FD1     		bne	.L20
 340:Generated_Source\PSoC4/BLE_1_gatt.c ****     {
 341:Generated_Source\PSoC4/BLE_1_gatt.c ****         CyBle_CheckStoreCharHandle(cyBle_gattc.serviceChanged);
 263              		.loc 1 341 0
 264 000a 094B     		ldr	r3, .L23+4
 265 000c 5B88     		ldrh	r3, [r3, #2]
 266 000e 002B     		cmp	r3, #0
 267 0010 05D1     		bne	.L22
 268              		.loc 1 341 0 is_stmt 0 discriminator 1
 269 0012 8288     		ldrh	r2, [r0, #4]
 270 0014 064B     		ldr	r3, .L23+4
 271 0016 5A80     		strh	r2, [r3, #2]
 272 0018 8278     		ldrb	r2, [r0, #2]
 273 001a 1A70     		strb	r2, [r3]
 274 001c 05E0     		b	.L20
 275              	.L22:
 276              		.loc 1 341 0 discriminator 2
 277 001e 811D     		add	r1, r0, #6
 278 0020 044B     		ldr	r3, .L23+8
 279 0022 1B68     		ldr	r3, [r3]
 280 0024 8620     		mov	r0, #134
 281              	.LVL24:
 282 0026 4000     		lsl	r0, r0, #1
ARM GAS  C:\Users\Harsha\AppData\Local\Temp\cc7xy1yh.s 			page 12


 283 0028 9847     		blx	r3
 284              	.LVL25:
 285              	.L20:
 342:Generated_Source\PSoC4/BLE_1_gatt.c ****     }
 343:Generated_Source\PSoC4/BLE_1_gatt.c **** }
 286              		.loc 1 343 0 is_stmt 1
 287              		@ sp needed
 288 002a 08BD     		pop	{r3, pc}
 289              	.L24:
 290              		.align	2
 291              	.L23:
 292 002c 052A0000 		.word	10757
 293 0030 00000000 		.word	cyBle_gattc
 294 0034 00000000 		.word	CyBle_ApplCallback
 295              		.cfi_endproc
 296              	.LFE5:
 297              		.size	CyBle_GattcDiscoverCharacteristicsEventHandler, .-CyBle_GattcDiscoverCharacteristicsEventHan
 298              		.section	.text.CyBle_GattcDiscoverCharDescriptorsEventHandler,"ax",%progbits
 299              		.align	2
 300              		.global	CyBle_GattcDiscoverCharDescriptorsEventHandler
 301              		.code	16
 302              		.thumb_func
 303              		.type	CyBle_GattcDiscoverCharDescriptorsEventHandler, %function
 304              	CyBle_GattcDiscoverCharDescriptorsEventHandler:
 305              	.LFB6:
 344:Generated_Source\PSoC4/BLE_1_gatt.c **** 
 345:Generated_Source\PSoC4/BLE_1_gatt.c **** 
 346:Generated_Source\PSoC4/BLE_1_gatt.c **** /******************************************************************************
 347:Generated_Source\PSoC4/BLE_1_gatt.c **** * Function Name: CyBle_GattcDiscoverCharDescriptorsEventHandler
 348:Generated_Source\PSoC4/BLE_1_gatt.c **** ***************************************************************************//**
 349:Generated_Source\PSoC4/BLE_1_gatt.c **** * 
 350:Generated_Source\PSoC4/BLE_1_gatt.c **** *  This function is called on receiving a "CYBLE_EVT_GATTC_FIND_INFO_RSP" event.
 351:Generated_Source\PSoC4/BLE_1_gatt.c **** *  Based on the descriptor UUID, an appropriate data structure is populated 
 352:Generated_Source\PSoC4/BLE_1_gatt.c **** *  using the data received as part of the callback.
 353:Generated_Source\PSoC4/BLE_1_gatt.c **** * 
 354:Generated_Source\PSoC4/BLE_1_gatt.c **** *  \param *discDescrInfo: The pointer to a descriptor information structure.
 355:Generated_Source\PSoC4/BLE_1_gatt.c **** *  \param discoveryService: The index of the service instance
 356:Generated_Source\PSoC4/BLE_1_gatt.c **** * 
 357:Generated_Source\PSoC4/BLE_1_gatt.c **** * \return
 358:Generated_Source\PSoC4/BLE_1_gatt.c **** *  None
 359:Generated_Source\PSoC4/BLE_1_gatt.c **** * 
 360:Generated_Source\PSoC4/BLE_1_gatt.c **** ******************************************************************************/
 361:Generated_Source\PSoC4/BLE_1_gatt.c **** void CyBle_GattcDiscoverCharDescriptorsEventHandler(CYBLE_DISC_DESCR_INFO_T *discDescrInfo)
 362:Generated_Source\PSoC4/BLE_1_gatt.c **** {
 306              		.loc 1 362 0
 307              		.cfi_startproc
 308              	.LVL26:
 309 0000 08B5     		push	{r3, lr}
 310              		.cfi_def_cfa_offset 8
 311              		.cfi_offset 3, -8
 312              		.cfi_offset 14, -4
 363:Generated_Source\PSoC4/BLE_1_gatt.c ****     if(discDescrInfo->uuid.uuid16 == CYBLE_UUID_CHAR_CLIENT_CONFIG)
 313              		.loc 1 363 0
 314 0002 8288     		ldrh	r2, [r0, #4]
 315 0004 084B     		ldr	r3, .L28
 316 0006 9A42     		cmp	r2, r3
 317 0008 0DD1     		bne	.L25
ARM GAS  C:\Users\Harsha\AppData\Local\Temp\cc7xy1yh.s 			page 13


 364:Generated_Source\PSoC4/BLE_1_gatt.c ****     {
 365:Generated_Source\PSoC4/BLE_1_gatt.c ****         CyBle_CheckStoreCharDescrHandle(cyBle_gattc.cccdHandle);
 318              		.loc 1 365 0
 319 000a 084B     		ldr	r3, .L28+4
 320 000c 9B88     		ldrh	r3, [r3, #4]
 321 000e 002B     		cmp	r3, #0
 322 0010 03D1     		bne	.L27
 323              		.loc 1 365 0 is_stmt 0 discriminator 1
 324 0012 4288     		ldrh	r2, [r0, #2]
 325 0014 054B     		ldr	r3, .L28+4
 326 0016 9A80     		strh	r2, [r3, #4]
 327 0018 05E0     		b	.L25
 328              	.L27:
 329              		.loc 1 365 0 discriminator 2
 330 001a 011D     		add	r1, r0, #4
 331 001c 044B     		ldr	r3, .L28+8
 332 001e 1B68     		ldr	r3, [r3]
 333 0020 8620     		mov	r0, #134
 334              	.LVL27:
 335 0022 4000     		lsl	r0, r0, #1
 336 0024 9847     		blx	r3
 337              	.LVL28:
 338              	.L25:
 366:Generated_Source\PSoC4/BLE_1_gatt.c ****     }
 367:Generated_Source\PSoC4/BLE_1_gatt.c **** }
 339              		.loc 1 367 0 is_stmt 1
 340              		@ sp needed
 341 0026 08BD     		pop	{r3, pc}
 342              	.L29:
 343              		.align	2
 344              	.L28:
 345 0028 02290000 		.word	10498
 346 002c 00000000 		.word	cyBle_gattc
 347 0030 00000000 		.word	CyBle_ApplCallback
 348              		.cfi_endproc
 349              	.LFE6:
 350              		.size	CyBle_GattcDiscoverCharDescriptorsEventHandler, .-CyBle_GattcDiscoverCharDescriptorsEventHan
 351              		.section	.text.CyBle_GattcIndicationEventHandler,"ax",%progbits
 352              		.align	2
 353              		.global	CyBle_GattcIndicationEventHandler
 354              		.code	16
 355              		.thumb_func
 356              		.type	CyBle_GattcIndicationEventHandler, %function
 357              	CyBle_GattcIndicationEventHandler:
 358              	.LFB7:
 368:Generated_Source\PSoC4/BLE_1_gatt.c **** 
 369:Generated_Source\PSoC4/BLE_1_gatt.c **** 
 370:Generated_Source\PSoC4/BLE_1_gatt.c **** /******************************************************************************
 371:Generated_Source\PSoC4/BLE_1_gatt.c **** * Function Name: CyBle_GattcIndicationEventHandler
 372:Generated_Source\PSoC4/BLE_1_gatt.c **** ***************************************************************************//**
 373:Generated_Source\PSoC4/BLE_1_gatt.c **** * 
 374:Generated_Source\PSoC4/BLE_1_gatt.c **** *  Handles the Indication Event.
 375:Generated_Source\PSoC4/BLE_1_gatt.c **** * 
 376:Generated_Source\PSoC4/BLE_1_gatt.c **** *  \param *eventParam: The pointer to the data structure specified by the event.
 377:Generated_Source\PSoC4/BLE_1_gatt.c **** * 
 378:Generated_Source\PSoC4/BLE_1_gatt.c **** * \return
 379:Generated_Source\PSoC4/BLE_1_gatt.c **** *  None.
ARM GAS  C:\Users\Harsha\AppData\Local\Temp\cc7xy1yh.s 			page 14


 380:Generated_Source\PSoC4/BLE_1_gatt.c **** * 
 381:Generated_Source\PSoC4/BLE_1_gatt.c **** ******************************************************************************/
 382:Generated_Source\PSoC4/BLE_1_gatt.c **** void CyBle_GattcIndicationEventHandler(CYBLE_GATTC_HANDLE_VALUE_IND_PARAM_T *eventParam)
 383:Generated_Source\PSoC4/BLE_1_gatt.c **** {
 359              		.loc 1 383 0
 360              		.cfi_startproc
 361              	.LVL29:
 362 0000 08B5     		push	{r3, lr}
 363              		.cfi_def_cfa_offset 8
 364              		.cfi_offset 3, -8
 365              		.cfi_offset 14, -4
 384:Generated_Source\PSoC4/BLE_1_gatt.c ****     if(cyBle_gattc.serviceChanged.valueHandle == eventParam->handleValPair.attrHandle)
 366              		.loc 1 384 0
 367 0002 084B     		ldr	r3, .L32
 368 0004 5A88     		ldrh	r2, [r3, #2]
 369 0006 8389     		ldrh	r3, [r0, #12]
 370 0008 9A42     		cmp	r2, r3
 371 000a 0AD1     		bne	.L30
 372 000c 011C     		mov	r1, r0
 385:Generated_Source\PSoC4/BLE_1_gatt.c ****     {
 386:Generated_Source\PSoC4/BLE_1_gatt.c ****         CyBle_ApplCallback((uint32)CYBLE_EVT_GATTC_INDICATION, eventParam);
 373              		.loc 1 386 0
 374 000e 064B     		ldr	r3, .L32+4
 375 0010 1B68     		ldr	r3, [r3]
 376 0012 8320     		mov	r0, #131
 377              	.LVL30:
 378 0014 4000     		lsl	r0, r0, #1
 379 0016 9847     		blx	r3
 380              	.LVL31:
 387:Generated_Source\PSoC4/BLE_1_gatt.c ****         cyBle_eventHandlerFlag &= (uint8)~CYBLE_CALLBACK;
 381              		.loc 1 387 0
 382 0018 044A     		ldr	r2, .L32+8
 383 001a 1378     		ldrb	r3, [r2]
 384 001c 0121     		mov	r1, #1
 385 001e 8B43     		bic	r3, r1
 386 0020 1370     		strb	r3, [r2]
 387              	.L30:
 388:Generated_Source\PSoC4/BLE_1_gatt.c ****     }
 389:Generated_Source\PSoC4/BLE_1_gatt.c **** }
 388              		.loc 1 389 0
 389              		@ sp needed
 390 0022 08BD     		pop	{r3, pc}
 391              	.L33:
 392              		.align	2
 393              	.L32:
 394 0024 00000000 		.word	cyBle_gattc
 395 0028 00000000 		.word	CyBle_ApplCallback
 396 002c 00000000 		.word	cyBle_eventHandlerFlag
 397              		.cfi_endproc
 398              	.LFE7:
 399              		.size	CyBle_GattcIndicationEventHandler, .-CyBle_GattcIndicationEventHandler
 400              		.comm	cyBle_gattc,6,4
 401              		.comm	cyBle_clientState,1,1
 402              		.global	cyBle_gattDB
 403              		.global	cyBle_attValuesLen
 404              		.global	cyBle_attUuid128
 405              		.comm	cyBle_attValuesCCCD,4,4
ARM GAS  C:\Users\Harsha\AppData\Local\Temp\cc7xy1yh.s 			page 15


 406              		.global	cyBle_gatts
 407              		.global	cyBle_flashStorage
 408              		.comm	cyBle_state,1,1
 409              		.section	.rodata
 410              		.align	2
 411              		.set	.LANCHOR0,. + 0
 412              		.type	cyBle_gattDB, %object
 413              		.size	cyBle_gattDB, 300
 414              	cyBle_gattDB:
 415 0000 0100     		.short	1
 416 0002 0028     		.short	10240
 417 0004 01000000 		.word	1
 418 0008 0500     		.short	5
 419 000a 0000     		.space	2
 420 000c 0018     		.short	6144
 421 000e 0000     		.space	2
 422 0010 00000000 		.word	0
 423 0014 0200     		.short	2
 424 0016 0328     		.short	10243
 425 0018 01020000 		.word	513
 426 001c 0300     		.short	3
 427 001e 0000     		.space	2
 428 0020 002A     		.short	10752
 429 0022 0000     		.space	2
 430 0024 00000000 		.word	0
 431 0028 0300     		.short	3
 432 002a 002A     		.short	10752
 433 002c 01020000 		.word	513
 434 0030 0300     		.short	3
 435 0032 0000     		.space	2
 436 0034 0A00     		.short	10
 437 0036 0000     		.space	2
 438 0038 00000000 		.word	cyBle_attValuesLen
 439 003c 0400     		.short	4
 440 003e 0328     		.short	10243
 441 0040 01020000 		.word	513
 442 0044 0500     		.short	5
 443 0046 0000     		.space	2
 444 0048 012A     		.short	10753
 445 004a 0000     		.space	2
 446 004c 00000000 		.word	0
 447 0050 0500     		.short	5
 448 0052 012A     		.short	10753
 449 0054 01020000 		.word	513
 450 0058 0500     		.short	5
 451 005a 0000     		.space	2
 452 005c 0200     		.short	2
 453 005e 0000     		.space	2
 454 0060 08000000 		.word	cyBle_attValuesLen+8
 455 0064 0600     		.short	6
 456 0066 0028     		.short	10240
 457 0068 01000000 		.word	1
 458 006c 0900     		.short	9
 459 006e 0000     		.space	2
 460 0070 0118     		.short	6145
 461 0072 0000     		.space	2
 462 0074 00000000 		.word	0
ARM GAS  C:\Users\Harsha\AppData\Local\Temp\cc7xy1yh.s 			page 16


 463 0078 0700     		.short	7
 464 007a 0328     		.short	10243
 465 007c 01220000 		.word	8705
 466 0080 0900     		.short	9
 467 0082 0000     		.space	2
 468 0084 052A     		.short	10757
 469 0086 0000     		.space	2
 470 0088 00000000 		.word	0
 471 008c 0800     		.short	8
 472 008e 052A     		.short	10757
 473 0090 01220000 		.word	8705
 474 0094 0900     		.short	9
 475 0096 0000     		.space	2
 476 0098 0400     		.short	4
 477 009a 0000     		.space	2
 478 009c 10000000 		.word	cyBle_attValuesLen+16
 479 00a0 0900     		.short	9
 480 00a2 0229     		.short	10498
 481 00a4 040A0000 		.word	2564
 482 00a8 0900     		.short	9
 483 00aa 0000     		.space	2
 484 00ac 0200     		.short	2
 485 00ae 0000     		.space	2
 486 00b0 18000000 		.word	cyBle_attValuesLen+24
 487 00b4 0A00     		.short	10
 488 00b6 0028     		.short	10240
 489 00b8 01000800 		.word	524289
 490 00bc 0F00     		.short	15
 491 00be 0000     		.space	2
 492 00c0 1000     		.short	16
 493 00c2 0000     		.space	2
 494 00c4 20000000 		.word	cyBle_attValuesLen+32
 495 00c8 0B00     		.short	11
 496 00ca 0328     		.short	10243
 497 00cc 01130000 		.word	4865
 498 00d0 0F00     		.short	15
 499 00d2 0000     		.space	2
 500 00d4 1000     		.short	16
 501 00d6 0000     		.space	2
 502 00d8 28000000 		.word	cyBle_attValuesLen+40
 503 00dc 0C00     		.short	12
 504 00de BCCB     		.short	-13380
 505 00e0 01130900 		.word	594689
 506 00e4 0F00     		.short	15
 507 00e6 0000     		.space	2
 508 00e8 0100     		.short	1
 509 00ea 0000     		.space	2
 510 00ec 30000000 		.word	cyBle_attValuesLen+48
 511 00f0 0D00     		.short	13
 512 00f2 0229     		.short	10498
 513 00f4 040A0100 		.word	68100
 514 00f8 0D00     		.short	13
 515 00fa 0000     		.space	2
 516 00fc 0200     		.short	2
 517 00fe 0000     		.space	2
 518 0100 38000000 		.word	cyBle_attValuesLen+56
 519 0104 0E00     		.short	14
ARM GAS  C:\Users\Harsha\AppData\Local\Temp\cc7xy1yh.s 			page 17


 520 0106 0329     		.short	10499
 521 0108 040A0100 		.word	68100
 522 010c 0E00     		.short	14
 523 010e 0000     		.space	2
 524 0110 0200     		.short	2
 525 0112 0000     		.space	2
 526 0114 40000000 		.word	cyBle_attValuesLen+64
 527 0118 0F00     		.short	15
 528 011a 0129     		.short	10497
 529 011c 01020100 		.word	66049
 530 0120 0F00     		.short	15
 531 0122 0000     		.space	2
 532 0124 0900     		.short	9
 533 0126 0000     		.space	2
 534 0128 48000000 		.word	cyBle_attValuesLen+72
 535              		.type	cyBle_attUuid128, %object
 536              		.size	cyBle_attUuid128, 32
 537              	cyBle_attUuid128:
 538 012c 20       		.byte	32
 539 012d 13       		.byte	19
 540 012e B0       		.byte	-80
 541 012f F9       		.byte	-7
 542 0130 05       		.byte	5
 543 0131 08       		.byte	8
 544 0132 00       		.byte	0
 545 0133 00       		.byte	0
 546 0134 08       		.byte	8
 547 0135 00       		.byte	0
 548 0136 01       		.byte	1
 549 0137 00       		.byte	0
 550 0138 BA       		.byte	-70
 551 0139 CB       		.byte	-53
 552 013a 03       		.byte	3
 553 013b 00       		.byte	0
 554 013c 20       		.byte	32
 555 013d 13       		.byte	19
 556 013e B0       		.byte	-80
 557 013f F9       		.byte	-7
 558 0140 05       		.byte	5
 559 0141 08       		.byte	8
 560 0142 00       		.byte	0
 561 0143 00       		.byte	0
 562 0144 08       		.byte	8
 563 0145 00       		.byte	0
 564 0146 01       		.byte	1
 565 0147 00       		.byte	0
 566 0148 BC       		.byte	-68
 567 0149 CB       		.byte	-53
 568 014a 03       		.byte	3
 569 014b 00       		.byte	0
 570              		.type	cyBle_gatts, %object
 571              		.size	cyBle_gatts, 6
 572              	cyBle_gatts:
 573 014c 0600     		.short	6
 574 014e 0800     		.short	8
 575 0150 0900     		.short	9
 576 0152 0000     		.data
ARM GAS  C:\Users\Harsha\AppData\Local\Temp\cc7xy1yh.s 			page 18


 577              		.align	2
 578              		.type	cyBle_attValuesLen, %object
 579              		.size	cyBle_attValuesLen, 80
 580              	cyBle_attValuesLen:
 581 0000 0A00     		.short	10
 582 0002 0000     		.space	2
 583 0004 50000000 		.word	cyBle_attValues
 584 0008 0200     		.short	2
 585 000a 0000     		.space	2
 586 000c 5A000000 		.word	cyBle_attValues+10
 587 0010 0400     		.short	4
 588 0012 0000     		.space	2
 589 0014 5C000000 		.word	cyBle_attValues+12
 590 0018 0200     		.short	2
 591 001a 0000     		.space	2
 592 001c 00000000 		.word	cyBle_attValuesCCCD
 593 0020 1000     		.short	16
 594 0022 0000     		.space	2
 595 0024 00000000 		.word	cyBle_attUuid128
 596 0028 1000     		.short	16
 597 002a 0000     		.space	2
 598 002c 10000000 		.word	cyBle_attUuid128+16
 599 0030 0100     		.short	1
 600 0032 0000     		.space	2
 601 0034 60000000 		.word	cyBle_attValues+16
 602 0038 0200     		.short	2
 603 003a 0000     		.space	2
 604 003c 02000000 		.word	cyBle_attValuesCCCD+2
 605 0040 0200     		.short	2
 606 0042 0000     		.space	2
 607 0044 61000000 		.word	cyBle_attValues+17
 608 0048 0900     		.short	9
 609 004a 0000     		.space	2
 610 004c 63000000 		.word	cyBle_attValues+19
 611              		.type	cyBle_attValues, %object
 612              		.size	cyBle_attValues, 28
 613              	cyBle_attValues:
 614 0050 43       		.byte	67
 615 0051 6C       		.byte	108
 616 0052 69       		.byte	105
 617 0053 65       		.byte	101
 618 0054 6E       		.byte	110
 619 0055 74       		.byte	116
 620 0056 20       		.byte	32
 621 0057 42       		.byte	66
 622 0058 4C       		.byte	76
 623 0059 45       		.byte	69
 624 005a 00       		.byte	0
 625 005b 00       		.byte	0
 626 005c 00       		.byte	0
 627 005d 00       		.byte	0
 628 005e 00       		.byte	0
 629 005f 00       		.byte	0
 630 0060 00       		.byte	0
 631 0061 00       		.byte	0
 632 0062 00       		.byte	0
 633 0063 4F       		.byte	79
ARM GAS  C:\Users\Harsha\AppData\Local\Temp\cc7xy1yh.s 			page 19


 634 0064 6E       		.byte	110
 635 0065 4F       		.byte	79
 636 0066 66       		.byte	102
 637 0067 66       		.byte	102
 638 0068 44       		.byte	68
 639 0069 61       		.byte	97
 640 006a 74       		.byte	116
 641 006b 61       		.byte	97
 642              		.section	.cy_checksum_exclude,"a",%progbits
 643              		.align	7
 644              		.type	cyBle_flashStorage, %object
 645              		.size	cyBle_flashStorage, 387
 646              	cyBle_flashStorage:
 647 0000 00       		.byte	0
 648 0001 00       		.byte	0
 649 0002 00       		.byte	0
 650 0003 00       		.byte	0
 651 0004 00       		.byte	0
 652 0005 00       		.byte	0
 653 0006 00       		.byte	0
 654 0007 00       		.byte	0
 655 0008 00       		.byte	0
 656 0009 00       		.byte	0
 657 000a 00       		.byte	0
 658 000b 00       		.byte	0
 659 000c 00       		.byte	0
 660 000d 00       		.byte	0
 661 000e 00       		.byte	0
 662 000f 00       		.byte	0
 663 0010 00       		.byte	0
 664 0011 00       		.byte	0
 665 0012 00       		.byte	0
 666 0013 00       		.byte	0
 667 0014 00       		.byte	0
 668 0015 00       		.byte	0
 669 0016 00       		.byte	0
 670 0017 00       		.byte	0
 671 0018 00       		.byte	0
 672 0019 00       		.byte	0
 673 001a 00       		.byte	0
 674 001b 00       		.byte	0
 675 001c 00       		.byte	0
 676 001d 00       		.byte	0
 677 001e 00       		.byte	0
 678 001f 00       		.byte	0
 679 0020 00       		.byte	0
 680 0021 00       		.byte	0
 681 0022 00       		.byte	0
 682 0023 00       		.byte	0
 683 0024 00       		.byte	0
 684 0025 00       		.byte	0
 685 0026 00       		.byte	0
 686 0027 00       		.byte	0
 687 0028 00       		.byte	0
 688 0029 00       		.byte	0
 689 002a 00       		.byte	0
 690 002b 00       		.byte	0
ARM GAS  C:\Users\Harsha\AppData\Local\Temp\cc7xy1yh.s 			page 20


 691 002c 00       		.byte	0
 692 002d 00       		.byte	0
 693 002e 00       		.byte	0
 694 002f 00       		.byte	0
 695 0030 00       		.byte	0
 696 0031 00       		.byte	0
 697 0032 00       		.byte	0
 698 0033 00       		.byte	0
 699 0034 00       		.byte	0
 700 0035 00       		.byte	0
 701 0036 00       		.byte	0
 702 0037 00       		.byte	0
 703 0038 00       		.byte	0
 704 0039 00       		.byte	0
 705 003a 00       		.byte	0
 706 003b 00       		.byte	0
 707 003c 00       		.byte	0
 708 003d 00       		.byte	0
 709 003e 00       		.byte	0
 710 003f 00       		.byte	0
 711 0040 00       		.byte	0
 712 0041 00       		.byte	0
 713 0042 00       		.byte	0
 714 0043 00       		.byte	0
 715 0044 00       		.byte	0
 716 0045 00       		.byte	0
 717 0046 00       		.byte	0
 718 0047 00       		.byte	0
 719 0048 00       		.byte	0
 720 0049 00       		.byte	0
 721 004a 00       		.byte	0
 722 004b 00       		.byte	0
 723 004c 00       		.byte	0
 724 004d 00       		.byte	0
 725 004e 00       		.byte	0
 726 004f 00       		.byte	0
 727 0050 00       		.byte	0
 728 0051 00       		.byte	0
 729 0052 00       		.byte	0
 730 0053 00       		.byte	0
 731 0054 00       		.byte	0
 732 0055 00       		.byte	0
 733 0056 00       		.byte	0
 734 0057 00       		.byte	0
 735 0058 00       		.byte	0
 736 0059 00       		.byte	0
 737 005a 00       		.byte	0
 738 005b 00       		.byte	0
 739 005c 00       		.byte	0
 740 005d 00       		.byte	0
 741 005e 00       		.byte	0
 742 005f 00       		.byte	0
 743 0060 00       		.byte	0
 744 0061 00       		.byte	0
 745 0062 00       		.byte	0
 746 0063 00       		.byte	0
 747 0064 00       		.byte	0
ARM GAS  C:\Users\Harsha\AppData\Local\Temp\cc7xy1yh.s 			page 21


 748 0065 00       		.byte	0
 749 0066 00       		.byte	0
 750 0067 00       		.byte	0
 751 0068 00       		.byte	0
 752 0069 00       		.byte	0
 753 006a 00       		.byte	0
 754 006b 00       		.byte	0
 755 006c 00       		.byte	0
 756 006d 00       		.byte	0
 757 006e 00       		.byte	0
 758 006f 00       		.byte	0
 759 0070 00       		.byte	0
 760 0071 00       		.byte	0
 761 0072 00       		.byte	0
 762 0073 00       		.byte	0
 763 0074 00       		.byte	0
 764 0075 00       		.byte	0
 765 0076 00       		.byte	0
 766 0077 00       		.byte	0
 767 0078 00       		.byte	0
 768 0079 00       		.byte	0
 769 007a 00       		.byte	0
 770 007b 00       		.byte	0
 771 007c 00       		.byte	0
 772 007d 00       		.byte	0
 773 007e 00       		.byte	0
 774 007f 00       		.byte	0
 775 0080 00       		.byte	0
 776 0081 00       		.byte	0
 777 0082 00       		.byte	0
 778 0083 00       		.byte	0
 779 0084 00       		.byte	0
 780 0085 00       		.byte	0
 781 0086 00       		.byte	0
 782 0087 00       		.byte	0
 783 0088 00       		.byte	0
 784 0089 00       		.byte	0
 785 008a 00       		.byte	0
 786 008b 00       		.byte	0
 787 008c 00       		.byte	0
 788 008d 00       		.byte	0
 789 008e 00       		.byte	0
 790 008f 00       		.byte	0
 791 0090 00       		.byte	0
 792 0091 00       		.byte	0
 793 0092 00       		.byte	0
 794 0093 00       		.byte	0
 795 0094 00       		.byte	0
 796 0095 00       		.byte	0
 797 0096 00       		.byte	0
 798 0097 00       		.byte	0
 799 0098 00       		.byte	0
 800 0099 00       		.byte	0
 801 009a 00       		.byte	0
 802 009b 00       		.byte	0
 803 009c 00       		.byte	0
 804 009d 00       		.byte	0
ARM GAS  C:\Users\Harsha\AppData\Local\Temp\cc7xy1yh.s 			page 22


 805 009e 00       		.byte	0
 806 009f 00       		.byte	0
 807 00a0 00       		.byte	0
 808 00a1 00       		.byte	0
 809 00a2 00       		.byte	0
 810 00a3 00       		.byte	0
 811 00a4 00       		.byte	0
 812 00a5 00       		.byte	0
 813 00a6 00       		.byte	0
 814 00a7 00       		.byte	0
 815 00a8 00       		.byte	0
 816 00a9 00       		.byte	0
 817 00aa 00       		.byte	0
 818 00ab 00       		.byte	0
 819 00ac 00       		.byte	0
 820 00ad 00       		.byte	0
 821 00ae 00       		.byte	0
 822 00af 00       		.byte	0
 823 00b0 00       		.byte	0
 824 00b1 00       		.byte	0
 825 00b2 00       		.byte	0
 826 00b3 00       		.byte	0
 827 00b4 00       		.byte	0
 828 00b5 00       		.byte	0
 829 00b6 00       		.byte	0
 830 00b7 00       		.byte	0
 831 00b8 00       		.byte	0
 832 00b9 00       		.byte	0
 833 00ba 00       		.byte	0
 834 00bb 00       		.byte	0
 835 00bc 00       		.byte	0
 836 00bd 00       		.byte	0
 837 00be 00       		.byte	0
 838 00bf 00       		.byte	0
 839 00c0 00       		.byte	0
 840 00c1 00       		.byte	0
 841 00c2 00       		.byte	0
 842 00c3 00       		.byte	0
 843 00c4 00       		.byte	0
 844 00c5 00       		.byte	0
 845 00c6 00       		.byte	0
 846 00c7 00       		.byte	0
 847 00c8 00       		.byte	0
 848 00c9 00       		.byte	0
 849 00ca 00       		.byte	0
 850 00cb 00       		.byte	0
 851 00cc 00       		.byte	0
 852 00cd 00       		.byte	0
 853 00ce 00       		.byte	0
 854 00cf 00       		.byte	0
 855 00d0 00       		.byte	0
 856 00d1 00       		.byte	0
 857 00d2 00       		.byte	0
 858 00d3 00       		.byte	0
 859 00d4 00       		.byte	0
 860 00d5 00       		.byte	0
 861 00d6 00       		.byte	0
ARM GAS  C:\Users\Harsha\AppData\Local\Temp\cc7xy1yh.s 			page 23


 862 00d7 00       		.byte	0
 863 00d8 00       		.byte	0
 864 00d9 00       		.byte	0
 865 00da 00       		.byte	0
 866 00db 00       		.byte	0
 867 00dc 00       		.byte	0
 868 00dd 00       		.byte	0
 869 00de 00       		.byte	0
 870 00df 00       		.byte	0
 871 00e0 00       		.byte	0
 872 00e1 00       		.byte	0
 873 00e2 00       		.byte	0
 874 00e3 00       		.byte	0
 875 00e4 00       		.byte	0
 876 00e5 00       		.byte	0
 877 00e6 00       		.byte	0
 878 00e7 00       		.byte	0
 879 00e8 00       		.byte	0
 880 00e9 00       		.byte	0
 881 00ea 00       		.byte	0
 882 00eb 00       		.byte	0
 883 00ec 00       		.byte	0
 884 00ed 00       		.byte	0
 885 00ee 00       		.byte	0
 886 00ef 00       		.byte	0
 887 00f0 00       		.byte	0
 888 00f1 00       		.byte	0
 889 00f2 00       		.byte	0
 890 00f3 00       		.byte	0
 891 00f4 00       		.byte	0
 892 00f5 00       		.byte	0
 893 00f6 00       		.byte	0
 894 00f7 00       		.byte	0
 895 00f8 00       		.byte	0
 896 00f9 00       		.byte	0
 897 00fa 00       		.byte	0
 898 00fb 00       		.byte	0
 899 00fc 00       		.byte	0
 900 00fd 00       		.byte	0
 901 00fe 00       		.byte	0
 902 00ff 00       		.byte	0
 903 0100 00       		.byte	0
 904 0101 00       		.byte	0
 905 0102 00       		.byte	0
 906 0103 00       		.byte	0
 907 0104 00       		.byte	0
 908 0105 00       		.byte	0
 909 0106 00       		.byte	0
 910 0107 00       		.byte	0
 911 0108 00       		.byte	0
 912 0109 00       		.byte	0
 913 010a 00       		.byte	0
 914 010b 00       		.byte	0
 915 010c 00       		.byte	0
 916 010d 00       		.byte	0
 917 010e 00       		.byte	0
 918 010f 00       		.byte	0
ARM GAS  C:\Users\Harsha\AppData\Local\Temp\cc7xy1yh.s 			page 24


 919 0110 00       		.byte	0
 920 0111 00       		.byte	0
 921 0112 00       		.byte	0
 922 0113 00       		.byte	0
 923 0114 00       		.byte	0
 924 0115 00       		.byte	0
 925 0116 00       		.byte	0
 926 0117 00       		.byte	0
 927 0118 00       		.byte	0
 928 0119 00       		.byte	0
 929 011a 00       		.byte	0
 930 011b 00       		.byte	0
 931 011c 00       		.byte	0
 932 011d 00       		.byte	0
 933 011e 00       		.byte	0
 934 011f 00       		.byte	0
 935 0120 00       		.byte	0
 936 0121 00       		.byte	0
 937 0122 00       		.byte	0
 938 0123 00       		.byte	0
 939 0124 00       		.byte	0
 940 0125 00       		.byte	0
 941 0126 00       		.byte	0
 942 0127 00       		.byte	0
 943 0128 00       		.byte	0
 944 0129 00       		.byte	0
 945 012a 00       		.byte	0
 946 012b 00       		.byte	0
 947 012c 00       		.byte	0
 948 012d 00       		.byte	0
 949 012e 00       		.byte	0
 950 012f 00       		.byte	0
 951 0130 00       		.byte	0
 952 0131 00       		.byte	0
 953 0132 00       		.byte	0
 954 0133 00       		.byte	0
 955 0134 00       		.byte	0
 956 0135 00       		.byte	0
 957 0136 00       		.byte	0
 958 0137 00       		.byte	0
 959 0138 00       		.byte	0
 960 0139 00       		.byte	0
 961 013a 00       		.byte	0
 962 013b 00       		.byte	0
 963 013c 00       		.byte	0
 964 013d 00       		.byte	0
 965 013e 00       		.byte	0
 966 013f 00       		.byte	0
 967 0140 00       		.byte	0
 968 0141 00       		.byte	0
 969 0142 00       		.byte	0
 970 0143 00       		.byte	0
 971 0144 00       		.byte	0
 972 0145 00       		.byte	0
 973 0146 00       		.byte	0
 974 0147 00       		.byte	0
 975 0148 00       		.byte	0
ARM GAS  C:\Users\Harsha\AppData\Local\Temp\cc7xy1yh.s 			page 25


 976 0149 00       		.byte	0
 977 014a 00       		.byte	0
 978 014b 00       		.byte	0
 979 014c 00       		.byte	0
 980 014d 00       		.byte	0
 981 014e 00       		.byte	0
 982 014f 00       		.byte	0
 983 0150 00       		.byte	0
 984 0151 00       		.byte	0
 985 0152 00       		.byte	0
 986 0153 00       		.byte	0
 987 0154 00       		.byte	0
 988 0155 00       		.byte	0
 989 0156 00       		.byte	0
 990 0157 00       		.byte	0
 991 0158 00       		.byte	0
 992 0159 00       		.byte	0
 993 015a 00       		.byte	0
 994 015b 00       		.byte	0
 995 015c 00       		.byte	0
 996 015d 00       		.byte	0
 997 015e 00       		.byte	0
 998 015f 00       		.byte	0
 999 0160 00       		.byte	0
 1000 0161 00       		.byte	0
 1001 0162 00       		.byte	0
 1002 0163 00       		.byte	0
 1003 0164 00       		.byte	0
 1004 0165 00       		.byte	0
 1005 0166 00       		.byte	0
 1006 0167 00       		.byte	0
 1007 0168 00       		.byte	0
 1008 0169 00       		.byte	0
 1009 016a 00       		.byte	0
 1010 016b 00       		.byte	0
 1011 016c 00       		.byte	0
 1012 016d 00       		.byte	0
 1013 016e 00       		.byte	0
 1014 016f 00       		.byte	0
 1015 0170 00       		.byte	0
 1016 0171 00       		.byte	0
 1017 0172 00       		.byte	0
 1018 0173 00       		.byte	0
 1019 0174 00       		.byte	0
 1020 0175 00       		.byte	0
 1021 0176 00       		.byte	0
 1022 0177 00       		.byte	0
 1023 0178 00       		.byte	0
 1024 0179 00       		.byte	0
 1025 017a 00       		.byte	0
 1026 017b 00       		.byte	0
 1027 017c 00       		.byte	0
 1028 017d 00       		.byte	0
 1029 017e 00       		.byte	0
 1030 017f 00       		.byte	0
 1031 0180 00       		.byte	0
 1032 0181 04       		.byte	4
ARM GAS  C:\Users\Harsha\AppData\Local\Temp\cc7xy1yh.s 			page 26


 1033 0182 05       		.byte	5
 1034 0183 00000000 		.text
 1034      00000000 
 1034      00000000 
 1034      00000000 
 1034      00000000 
 1035              	.Letext0:
 1036              		.file 2 "Generated_Source\\PSoC4\\cytypes.h"
 1037              		.file 3 "Generated_Source\\PSoC4\\BLE_1_Stack.h"
 1038              		.file 4 "Generated_Source\\PSoC4\\BLE_1_StackGatt.h"
 1039              		.file 5 "Generated_Source\\PSoC4\\BLE_1_StackGattServer.h"
 1040              		.file 6 "Generated_Source\\PSoC4\\BLE_1_StackGattClient.h"
 1041              		.file 7 "Generated_Source\\PSoC4\\BLE_1_StackGattDb.h"
 1042              		.file 8 "Generated_Source\\PSoC4\\BLE_1.h"
 1043              		.file 9 "Generated_Source\\PSoC4\\BLE_1_gatt.h"
 1044              		.file 10 "Generated_Source\\PSoC4\\BLE_1_eventHandler.h"