ARM GAS  C:\Users\Harsha\AppData\Local\Temp\ccY7AKYL.s 			page 1


   1              		.cpu cortex-m0
   2              		.fpu softvfp
   3              		.eabi_attribute 20, 1
   4              		.eabi_attribute 21, 1
   5              		.eabi_attribute 23, 3
   6              		.eabi_attribute 24, 1
   7              		.eabi_attribute 25, 1
   8              		.eabi_attribute 26, 1
   9              		.eabi_attribute 30, 1
  10              		.eabi_attribute 34, 0
  11              		.eabi_attribute 18, 4
  12              		.code	16
  13              		.file	"main.c"
  14              		.text
  15              	.Ltext0:
  16              		.cfi_sections	.debug_frame
  17              		.section	.text.LoadPeripheralDeviceData,"ax",%progbits
  18              		.align	2
  19              		.global	LoadPeripheralDeviceData
  20              		.code	16
  21              		.thumb_func
  22              		.type	LoadPeripheralDeviceData, %function
  23              	LoadPeripheralDeviceData:
  24              	.LFB35:
  25              		.file 1 "main.c"
   1:main.c        **** /* ========================================
   2:main.c        ****  *
   3:main.c        ****  * Copyright YOUR COMPANY, THE YEAR
   4:main.c        ****  * All Rights Reserved
   5:main.c        ****  * UNPUBLISHED, LICENSED SOFTWARE.
   6:main.c        ****  *
   7:main.c        ****  * CONFIDENTIAL AND PROPRIETARY INFORMATION
   8:main.c        ****  * WHICH IS THE PROPERTY OF your company.
   9:main.c        ****  *
  10:main.c        ****  * ========================================
  11:main.c        **** */
  12:main.c        **** #include <project.h>
  13:main.c        **** #include <main.h>
  14:main.c        **** 
  15:main.c        **** /* 'list_of_devices' is  of type 'CYBLE_GAPC_ADV_REPORT_T' (defined in 
  16:main.c        ****  * BLE_StackGap.h) that is used to store the reports of the peripheral devices
  17:main.c        **** * being scanned by this Central device*/
  18:main.c        **** CYBLE_GAPC_ADV_REPORT_T 	list_of_devices;
  19:main.c        **** 
  20:main.c        **** /* 'connectPeriphDevice' is a variable of type 'CYBLE_GAP_BD_ADDR_T' (defined in 
  21:main.c        **** * BLE_StackGap.h) and is used to store address of the connected device. */
  22:main.c        **** CYBLE_GAP_BD_ADDR_T 		connectPeriphDevice;
  23:main.c        **** 
  24:main.c        **** /* 'connHandle' is a variable of type 'CYBLE_CONN_HANDLE_T' (defined in 
  25:main.c        **** * BLE_StackGatt.h) and is used to store the connection handle parameters after
  26:main.c        **** * connecting with the peripheral device. */
  27:main.c        **** CYBLE_CONN_HANDLE_T			connHandle;
  28:main.c        **** 
  29:main.c        **** //This button toggle state. First time button is pressed, it will set to 1, next time
  30:main.c        **** // button is pressed it will reset the value to 0. Based on this server led will be on
  31:main.c        **** //on off
  32:main.c        **** uint8 OnOff = 0;
ARM GAS  C:\Users\Harsha\AppData\Local\Temp\ccY7AKYL.s 			page 2


  33:main.c        **** 
  34:main.c        **** 
  35:main.c        **** /* 'deviceConnected' flag tells the status of connection with BLE peripheral Device */
  36:main.c        **** uint8 deviceConnected = FALSE;
  37:main.c        **** 
  38:main.c        **** 
  39:main.c        **** /* 'address_store' stores the addresses returned by Scanning results */
  40:main.c        **** uint8 address_store[6];
  41:main.c        **** 
  42:main.c        **** /* 'peripheralAddress' stores the addresses of device presently connected to */
  43:main.c        **** uint8 peripheralAddress[6];
  44:main.c        **** 
  45:main.c        **** /* 'peripheralFound' flag tells whether the peripheral device with the required Address
  46:main.c        ****  * has been found during scanning or not. */
  47:main.c        **** uint8 peripheralFound = FALSE;
  48:main.c        **** 
  49:main.c        **** /* 'addedDevices' tells the number of devices that has been added to the list till now. */
  50:main.c        **** uint8 addedDevices = FALSE;
  51:main.c        **** 
  52:main.c        **** /* 'restartScanning' flag indicates to application whether starting scan API has to be
  53:main.c        **** * called or not */
  54:main.c        **** uint8 restartScanning = FALSE;
  55:main.c        **** 
  56:main.c        **** //This datastructure is used to recieve the data sent by server
  57:main.c        **** union ServerBytes sensor_data;
  58:main.c        **** //This datastructure is used to send the data to the server.
  59:main.c        **** union ClientBytes send_data;
  60:main.c        **** 
  61:main.c        **** 
  62:main.c        **** char buf[200]; //just to hold text values in for writing to UART
  63:main.c        **** 
  64:main.c        **** /*******************************************************************************
  65:main.c        **** * Function Name: LoadPeripheralDeviceData
  66:main.c        **** ********************************************************************************
  67:main.c        **** * Summary:
  68:main.c        **** *        This function stores the address of the peripheral device to which this
  69:main.c        **** * Central device wishes to connect. 
  70:main.c        **** *
  71:main.c        **** * Parameters:
  72:main.c        **** *  void
  73:main.c        **** *
  74:main.c        **** * Return:
  75:main.c        **** *  void
  76:main.c        **** *
  77:main.c        **** 
  78:main.c        **** *******************************************************************************/
  79:main.c        **** void LoadPeripheralDeviceData(void)
  80:main.c        **** {
  26              		.loc 1 80 0
  27              		.cfi_startproc
  81:main.c        **** 	/* This stores the 6-byte BD address of peripheral device to which we have to connect.
  82:main.c        ****        This is Servers MAC address. To know the MAC Address. Program your server, 
  83:main.c        ****        Open your CySmart App in your phone. Serach for devices. It should list "Server BLE"
  84:main.c        ****        device. Below the name it should list the MAC address of that device.
  85:main.c        **** 	.*/
  86:main.c        ****     
  87:main.c        **** 		peripheralAddress[5] = 0x00;
ARM GAS  C:\Users\Harsha\AppData\Local\Temp\ccY7AKYL.s 			page 3


  28              		.loc 1 87 0
  29 0000 064B     		ldr	r3, .L2
  30 0002 0022     		mov	r2, #0
  31 0004 5A71     		strb	r2, [r3, #5]
  88:main.c        **** 		peripheralAddress[4] = 0xA0;
  32              		.loc 1 88 0
  33 0006 A032     		add	r2, r2, #160
  34 0008 1A71     		strb	r2, [r3, #4]
  89:main.c        **** 		peripheralAddress[3] = 0x50;
  35              		.loc 1 89 0
  36 000a 503A     		sub	r2, r2, #80
  37 000c DA70     		strb	r2, [r3, #3]
  90:main.c        **** 		peripheralAddress[2] = 0x16;
  38              		.loc 1 90 0
  39 000e 3A3A     		sub	r2, r2, #58
  40 0010 9A70     		strb	r2, [r3, #2]
  91:main.c        **** 		peripheralAddress[1] = 0x1E;
  41              		.loc 1 91 0
  42 0012 0832     		add	r2, r2, #8
  43 0014 5A70     		strb	r2, [r3, #1]
  92:main.c        **** 		peripheralAddress[0] = 0x1A;
  44              		.loc 1 92 0
  45 0016 043A     		sub	r2, r2, #4
  46 0018 1A70     		strb	r2, [r3]
  93:main.c        ****              
  94:main.c        **** }
  47              		.loc 1 94 0
  48              		@ sp needed
  49 001a 7047     		bx	lr
  50              	.L3:
  51              		.align	2
  52              	.L2:
  53 001c 00000000 		.word	peripheralAddress
  54              		.cfi_endproc
  55              	.LFE35:
  56              		.size	LoadPeripheralDeviceData, .-LoadPeripheralDeviceData
  57              		.section	.text.HandleScanDevices,"ax",%progbits
  58              		.align	2
  59              		.global	HandleScanDevices
  60              		.code	16
  61              		.thumb_func
  62              		.type	HandleScanDevices, %function
  63              	HandleScanDevices:
  64              	.LFB36:
  95:main.c        **** 
  96:main.c        **** /*******************************************************************************
  97:main.c        **** * Function Name: HandleScanDevices
  98:main.c        **** ********************************************************************************
  99:main.c        **** * Summary:
 100:main.c        **** *        This function checks for new devices that have been scanned 
 101:main.c        **** *           sets flag to allow connection with it.
 102:main.c        **** *
 103:main.c        **** * Parameters:
 104:main.c        **** *  scanReport:		parameter of type CYBLE_GAPC_ADV_REPORT_T* returned by BLE
 105:main.c        **** * 					event CYBLE_EVT_GAPC_SCAN_PROGRESS_RESULT.
 106:main.c        **** *
 107:main.c        **** * Return:
ARM GAS  C:\Users\Harsha\AppData\Local\Temp\ccY7AKYL.s 			page 4


 108:main.c        **** *  void
 109:main.c        **** *
 110:main.c        **** *******************************************************************************/
 111:main.c        **** void HandleScanDevices(CYBLE_GAPC_ADV_REPORT_T* scanReport)
 112:main.c        **** {
  65              		.loc 1 112 0
  66              		.cfi_startproc
  67              	.LVL0:
  68 0000 38B5     		push	{r3, r4, r5, lr}
  69              		.cfi_def_cfa_offset 16
  70              		.cfi_offset 3, -16
  71              		.cfi_offset 4, -12
  72              		.cfi_offset 5, -8
  73              		.cfi_offset 14, -4
  74 0002 051C     		mov	r5, r0
 113:main.c        ****     //Compare scanned device address with the server address
 114:main.c        **** 	if(FALSE == memcmp(&peripheralAddress[0], scanReport->peerBdAddr, ADV_ADDR_LEN))
  75              		.loc 1 114 0
  76 0004 4468     		ldr	r4, [r0, #4]
  77 0006 0E48     		ldr	r0, .L6
  78              	.LVL1:
  79 0008 211C     		mov	r1, r4
  80 000a 0622     		mov	r2, #6
  81 000c FFF7FEFF 		bl	memcmp
  82              	.LVL2:
  83 0010 0028     		cmp	r0, #0
  84 0012 14D1     		bne	.L4
 115:main.c        **** 	{
 116:main.c        **** 		/* Save the connected device BD Address and Type*/
 117:main.c        **** 		connectPeriphDevice.bdAddr[0] = scanReport->peerBdAddr[0];
  85              		.loc 1 117 0
  86 0014 2278     		ldrb	r2, [r4]
  87 0016 0B4B     		ldr	r3, .L6+4
  88 0018 1A70     		strb	r2, [r3]
 118:main.c        **** 		connectPeriphDevice.bdAddr[1] = scanReport->peerBdAddr[1];
  89              		.loc 1 118 0
  90 001a 6278     		ldrb	r2, [r4, #1]
  91 001c 5A70     		strb	r2, [r3, #1]
 119:main.c        **** 		connectPeriphDevice.bdAddr[2] = scanReport->peerBdAddr[2];
  92              		.loc 1 119 0
  93 001e A278     		ldrb	r2, [r4, #2]
  94 0020 9A70     		strb	r2, [r3, #2]
 120:main.c        **** 		connectPeriphDevice.bdAddr[3] = scanReport->peerBdAddr[3];
  95              		.loc 1 120 0
  96 0022 E278     		ldrb	r2, [r4, #3]
  97 0024 DA70     		strb	r2, [r3, #3]
 121:main.c        **** 		connectPeriphDevice.bdAddr[4] = scanReport->peerBdAddr[4];
  98              		.loc 1 121 0
  99 0026 2279     		ldrb	r2, [r4, #4]
 100 0028 1A71     		strb	r2, [r3, #4]
 122:main.c        **** 		connectPeriphDevice.bdAddr[5] = scanReport->peerBdAddr[5];
 101              		.loc 1 122 0
 102 002a 6A68     		ldr	r2, [r5, #4]
 103 002c 5279     		ldrb	r2, [r2, #5]
 104 002e 5A71     		strb	r2, [r3, #5]
 123:main.c        ****         
 124:main.c        **** 		
ARM GAS  C:\Users\Harsha\AppData\Local\Temp\ccY7AKYL.s 			page 5


 125:main.c        **** 		connectPeriphDevice.type = scanReport->peerAddrType;
 105              		.loc 1 125 0
 106 0030 6A78     		ldrb	r2, [r5, #1]
 107 0032 9A71     		strb	r2, [r3, #6]
 126:main.c        **** 			
 127:main.c        **** 		/* Set the flag to notify application of a connected peripheral device */
 128:main.c        **** 		peripheralFound = TRUE;	
 108              		.loc 1 128 0
 109 0034 0122     		mov	r2, #1
 110 0036 044B     		ldr	r3, .L6+8
 111 0038 1A70     		strb	r2, [r3]
 129:main.c        **** 		
 130:main.c        **** 		/* Stop existing BLE Scan */
 131:main.c        **** 		CyBle_GapcStopScan();
 112              		.loc 1 131 0
 113 003a FFF7FEFF 		bl	CyBle_GapcStopScan
 114              	.LVL3:
 115              	.L4:
 132:main.c        **** 	}
 133:main.c        **** 	
 134:main.c        **** 	
 135:main.c        **** }
 116              		.loc 1 135 0
 117              		@ sp needed
 118              	.LVL4:
 119 003e 38BD     		pop	{r3, r4, r5, pc}
 120              	.L7:
 121              		.align	2
 122              	.L6:
 123 0040 00000000 		.word	peripheralAddress
 124 0044 00000000 		.word	connectPeriphDevice
 125 0048 00000000 		.word	.LANCHOR0
 126              		.cfi_endproc
 127              	.LFE36:
 128              		.size	HandleScanDevices, .-HandleScanDevices
 129              		.section	.text.BluetoothEventHandler,"ax",%progbits
 130              		.align	2
 131              		.global	BluetoothEventHandler
 132              		.code	16
 133              		.thumb_func
 134              		.type	BluetoothEventHandler, %function
 135              	BluetoothEventHandler:
 136              	.LFB37:
 136:main.c        **** 
 137:main.c        **** /*******************************************************************************
 138:main.c        **** * Function Name: BluetoothEventHandler
 139:main.c        **** ********************************************************************************
 140:main.c        **** * Summary:
 141:main.c        **** *        Call back event function to handle various events from BLE stack
 142:main.c        **** *
 143:main.c        **** * Parameters:
 144:main.c        **** *  event:		event returned
 145:main.c        **** *  eventParam:	link to value of the event parameter returned
 146:main.c        **** *
 147:main.c        **** * Return:
 148:main.c        **** *  void
 149:main.c        **** *
ARM GAS  C:\Users\Harsha\AppData\Local\Temp\ccY7AKYL.s 			page 6


 150:main.c        **** *******************************************************************************/
 151:main.c        **** void BluetoothEventHandler(uint32 event, void *eventparam)
 152:main.c        **** {
 137              		.loc 1 152 0
 138              		.cfi_startproc
 139              	.LVL5:
 140 0000 30B5     		push	{r4, r5, lr}
 141              		.cfi_def_cfa_offset 12
 142              		.cfi_offset 4, -12
 143              		.cfi_offset 5, -8
 144              		.cfi_offset 14, -4
 145 0002 87B0     		sub	sp, sp, #28
 146              		.cfi_def_cfa_offset 40
 147              	.LVL6:
 153:main.c        **** 	/* 'apiResult' is a variable of type 'CYBLE_API_RESULT_T' (defined in 
 154:main.c        **** 	* BLE_StackTypes.h) and is used to store the return value from BLE APIs. */
 155:main.c        **** 	CYBLE_API_RESULT_T 			apiResult;
 156:main.c        **** 	
 157:main.c        **** 	/* 'scan_report' is a variable of type 'CYBLE_GAPC_ADV_REPORT_T' (defined in 
 158:main.c        **** 	* BLE_StackGap.h) and is used to store report retuned from Scan results. */
 159:main.c        **** 	CYBLE_GAPC_ADV_REPORT_T		scan_report;
 160:main.c        ****     
 161:main.c        ****     //This is the structure sent by server for any read requests initiated by client
 162:main.c        ****     CYBLE_GATTC_READ_RSP_PARAM_T *readParams;
 163:main.c        **** 	
 164:main.c        **** 
 165:main.c        ****     
 166:main.c        ****     uint8 red = 0;
 167:main.c        ****     uint8 green = 0;
 168:main.c        ****     uint8 blue = 0;
 169:main.c        **** 	
 170:main.c        **** 	switch(event)
 148              		.loc 1 170 0
 149 0004 2828     		cmp	r0, #40
 150 0006 3FD0     		beq	.L10
 151 0008 06D8     		bhi	.L11
 152 000a 2028     		cmp	r0, #32
 153 000c 21D0     		beq	.L12
 154 000e 2728     		cmp	r0, #39
 155 0010 32D0     		beq	.L13
 156 0012 0128     		cmp	r0, #1
 157 0014 75D1     		bne	.L8
 158 0016 0CE0     		b	.L14
 159              	.L11:
 160 0018 4128     		cmp	r0, #65
 161 001a 28D0     		beq	.L15
 162 001c 02D8     		bhi	.L16
 163 001e 2B28     		cmp	r0, #43
 164 0020 0BD0     		beq	.L17
 165 0022 6EE0     		b	.L8
 166              	.L16:
 167 0024 4928     		cmp	r0, #73
 168 0026 49D0     		beq	.L18
 169 0028 1223     		mov	r3, #18
 170 002a FF33     		add	r3, r3, #255
 171 002c 9842     		cmp	r0, r3
 172 002e 41D0     		beq	.L19
ARM GAS  C:\Users\Harsha\AppData\Local\Temp\ccY7AKYL.s 			page 7


 173 0030 67E0     		b	.L8
 174              	.L14:
 171:main.c        **** 	{
 172:main.c        **** 		case CYBLE_EVT_STACK_ON:
 173:main.c        **** 			
 174:main.c        **** 			/* Set start scanning flag to allow calling the API in main loop */
 175:main.c        **** 			restartScanning = TRUE;
 175              		.loc 1 175 0
 176 0032 0122     		mov	r2, #1
 177 0034 344B     		ldr	r3, .L25
 178 0036 5A70     		strb	r2, [r3, #1]
 176:main.c        **** 		break;
 179              		.loc 1 176 0
 180 0038 63E0     		b	.L8
 181              	.L17:
 177:main.c        **** 			
 178:main.c        **** 		case CYBLE_EVT_GAPC_SCAN_START_STOP:
 179:main.c        **** 			/* Add relevant code here pertaining to Starting/Stopping of Scan*/
 180:main.c        **** 			if(CyBle_GetState() == CYBLE_STATE_DISCONNECTED)
 182              		.loc 1 180 0
 183 003a 344B     		ldr	r3, .L25+4
 184 003c 1B78     		ldrb	r3, [r3]
 185 003e 052B     		cmp	r3, #5
 186 0040 5FD1     		bne	.L8
 181:main.c        **** 			{
 182:main.c        **** 				
 183:main.c        **** 				if(!peripheralFound)
 187              		.loc 1 183 0
 188 0042 314B     		ldr	r3, .L25
 189 0044 1B78     		ldrb	r3, [r3]
 190 0046 002B     		cmp	r3, #0
 191 0048 5BD1     		bne	.L8
 184:main.c        **** 				{
 185:main.c        **** 					
 186:main.c        **** 					restartScanning = TRUE;
 192              		.loc 1 186 0
 193 004a 0122     		mov	r2, #1
 194 004c 2E4B     		ldr	r3, .L25
 195 004e 5A70     		strb	r2, [r3, #1]
 196 0050 57E0     		b	.L8
 197              	.L12:
 187:main.c        **** 				}
 188:main.c        **** 			}
 189:main.c        **** 			else
 190:main.c        **** 			{
 191:main.c        **** 				
 192:main.c        **** 			}
 193:main.c        **** 		break;
 194:main.c        **** 			
 195:main.c        **** 		case CYBLE_EVT_GAPC_SCAN_PROGRESS_RESULT:
 196:main.c        **** 			/* This event is generated whenever there is a device found*/
 197:main.c        **** 			if(CYBLE_STATE_CONNECTED != CyBle_GetState())	
 198              		.loc 1 197 0
 199 0052 2E4B     		ldr	r3, .L25+4
 200 0054 1B78     		ldrb	r3, [r3]
 201 0056 022B     		cmp	r3, #2
 202 0058 53D0     		beq	.L8
ARM GAS  C:\Users\Harsha\AppData\Local\Temp\ccY7AKYL.s 			page 8


 198:main.c        **** 			{
 199:main.c        **** 				/* If we are not connected to any peripheral device, then save the new device  
 200:main.c        **** 					information so to add it to our list */
 201:main.c        **** 				scan_report = *(CYBLE_GAPC_ADV_REPORT_T*) eventparam;
 203              		.loc 1 201 0
 204 005a 01A8     		add	r0, sp, #4
 205              	.LVL7:
 206 005c 031C     		mov	r3, r0
 207 005e 0A1C     		mov	r2, r1
 208 0060 32CA     		ldmia	r2!, {r1, r4, r5}
 209 0062 32C3     		stmia	r3!, {r1, r4, r5}
 210              	.LVL8:
 211 0064 12CA     		ldmia	r2!, {r1, r4}
 212 0066 12C3     		stmia	r3!, {r1, r4}
 213              	.LVL9:
 202:main.c        **** 				
 203:main.c        **** 				/* Add the new device to existing list if not done yet, and compare the address with our
 204:main.c        **** 					required address.*/
 205:main.c        **** 				HandleScanDevices(&scan_report);
 214              		.loc 1 205 0
 215 0068 FFF7FEFF 		bl	HandleScanDevices
 216              	.LVL10:
 217 006c 49E0     		b	.L8
 218              	.LVL11:
 219              	.L15:
 206:main.c        **** 			}
 207:main.c        **** 			
 208:main.c        **** 		break;
 209:main.c        **** 			
 210:main.c        ****  		case CYBLE_EVT_GATT_CONNECT_IND:
 211:main.c        **** 
 212:main.c        **** 			/* When the peripheral device is connected, store the connection handle.*/
 213:main.c        ****             connHandle = *(CYBLE_CONN_HANDLE_T *)eventparam;
 220              		.loc 1 213 0
 221 006e 2848     		ldr	r0, .L25+8
 222              	.LVL12:
 223 0070 0222     		mov	r2, #2
 224 0072 FFF7FEFF 		bl	memcpy
 225              	.LVL13:
 214:main.c        ****             break;
 226              		.loc 1 214 0
 227 0076 44E0     		b	.L8
 228              	.LVL14:
 229              	.L13:
 215:main.c        **** 			
 216:main.c        **** 		case CYBLE_EVT_GATT_DISCONNECT_IND:
 217:main.c        **** 			/* When the peripheral device is disconnected, reset variables*/
 218:main.c        **** 			
 219:main.c        **** 			break;
 220:main.c        **** 			
 221:main.c        **** 		case CYBLE_EVT_GAP_DEVICE_CONNECTED:
 222:main.c        **** 			
 223:main.c        **** 			/* The Device is connected now. Start Attributes discovery process.*/
 224:main.c        **** 			apiResult = CyBle_GattcStartDiscovery(connHandle);
 230              		.loc 1 224 0
 231 0078 254A     		ldr	r2, .L25+8
 232 007a 1378     		ldrb	r3, [r2]
ARM GAS  C:\Users\Harsha\AppData\Local\Temp\ccY7AKYL.s 			page 9


 233 007c 5078     		ldrb	r0, [r2, #1]
 234              	.LVL15:
 235 007e 0002     		lsl	r0, r0, #8
 236 0080 1843     		orr	r0, r3
 237 0082 FFF7FEFF 		bl	CyBle_GattcStartDiscovery
 238              	.LVL16:
 225:main.c        **** 			
 226:main.c        ****             
 227:main.c        **** 			if(apiResult != CYBLE_ERROR_OK)
 228:main.c        **** 			{
 229:main.c        **** 
 230:main.c        **** 			}
 231:main.c        **** 			
 232:main.c        **** 			
 233:main.c        ****         break;
 239              		.loc 1 233 0
 240 0086 3CE0     		b	.L8
 241              	.LVL17:
 242              	.L10:
 234:main.c        **** 			
 235:main.c        **** 		case CYBLE_EVT_GAP_DEVICE_DISCONNECTED:
 236:main.c        **** 			/* Reset all saved peripheral Addresses */
 237:main.c        **** 				list_of_devices.peerBdAddr[0] = FALSE;
 243              		.loc 1 237 0
 244 0088 224A     		ldr	r2, .L25+12
 245 008a 0023     		mov	r3, #0
 246 008c 5168     		ldr	r1, [r2, #4]
 247              	.LVL18:
 248 008e 0B70     		strb	r3, [r1]
 238:main.c        **** 				list_of_devices.peerBdAddr[1] = FALSE;
 249              		.loc 1 238 0
 250 0090 5168     		ldr	r1, [r2, #4]
 251 0092 4B70     		strb	r3, [r1, #1]
 239:main.c        **** 				list_of_devices.peerBdAddr[2] = FALSE;
 252              		.loc 1 239 0
 253 0094 5168     		ldr	r1, [r2, #4]
 254 0096 8B70     		strb	r3, [r1, #2]
 240:main.c        **** 				list_of_devices.peerBdAddr[3] = FALSE;
 255              		.loc 1 240 0
 256 0098 5168     		ldr	r1, [r2, #4]
 257 009a CB70     		strb	r3, [r1, #3]
 241:main.c        **** 				list_of_devices.peerBdAddr[4] = FALSE;
 258              		.loc 1 241 0
 259 009c 5168     		ldr	r1, [r2, #4]
 260 009e 0B71     		strb	r3, [r1, #4]
 242:main.c        **** 				list_of_devices.peerBdAddr[5] = FALSE;
 261              		.loc 1 242 0
 262 00a0 5268     		ldr	r2, [r2, #4]
 263 00a2 5371     		strb	r3, [r2, #5]
 243:main.c        **** 			
 244:main.c        **** 			/* Reset application Flags on BLE Disconnect */
 245:main.c        **** 			addedDevices = FALSE;
 264              		.loc 1 245 0
 265 00a4 184A     		ldr	r2, .L25
 266 00a6 9370     		strb	r3, [r2, #2]
 246:main.c        **** 			peripheralFound = FALSE;
 267              		.loc 1 246 0
ARM GAS  C:\Users\Harsha\AppData\Local\Temp\ccY7AKYL.s 			page 10


 268 00a8 1370     		strb	r3, [r2]
 247:main.c        **** 			deviceConnected = FALSE;
 269              		.loc 1 247 0
 270 00aa D370     		strb	r3, [r2, #3]
 248:main.c        **** 			
 249:main.c        **** 			/* Set the flag for rescanning after wakeup */
 250:main.c        **** 			restartScanning = TRUE;
 271              		.loc 1 250 0
 272 00ac 0121     		mov	r1, #1
 273 00ae 5170     		strb	r1, [r2, #1]
 251:main.c        ****                 
 252:main.c        ****             OnOff = 0;
 274              		.loc 1 252 0
 275 00b0 1371     		strb	r3, [r2, #4]
 253:main.c        **** 			
 254:main.c        **** 			if(apiResult != CYBLE_ERROR_OK)
 255:main.c        **** 			{
 256:main.c        **** 			}
 257:main.c        **** 			break;
 276              		.loc 1 257 0
 277 00b2 26E0     		b	.L8
 278              	.LVL19:
 279              	.L19:
 258:main.c        **** 			
 259:main.c        **** 	
 260:main.c        **** 		case CYBLE_EVT_GATTC_DISCOVERY_COMPLETE:
 261:main.c        **** 			/* This event is generated whenever the discovery procedure is complete*/
 262:main.c        **** 			
 263:main.c        **** 			/*Set the Device connected flag*/
 264:main.c        **** 			deviceConnected = TRUE;
 280              		.loc 1 264 0
 281 00b4 0122     		mov	r2, #1
 282 00b6 144B     		ldr	r3, .L25
 283 00b8 DA70     		strb	r2, [r3, #3]
 265:main.c        **** 			
 266:main.c        **** 		break;
 284              		.loc 1 266 0
 285 00ba 22E0     		b	.L8
 286              	.L18:
 287              	.LVL20:
 267:main.c        ****             
 268:main.c        ****         case CYBLE_EVT_GATTC_READ_RSP:
 269:main.c        **** 			/* This event is generated when the server sends a response to a read request*/
 270:main.c        **** 			readParams = (CYBLE_GATTC_READ_RSP_PARAM_T *) eventparam;
 271:main.c        ****             
 272:main.c        ****             red = readParams->value.val[0];
 288              		.loc 1 272 0
 289 00bc 4B68     		ldr	r3, [r1, #4]
 290 00be 1A78     		ldrb	r2, [r3]
 291              	.LVL21:
 273:main.c        ****             green = readParams->value.val[1];
 292              		.loc 1 273 0
 293 00c0 5D78     		ldrb	r5, [r3, #1]
 294              	.LVL22:
 274:main.c        ****             blue = readParams->value.val[2];
 295              		.loc 1 274 0
 296 00c2 9C78     		ldrb	r4, [r3, #2]
ARM GAS  C:\Users\Harsha\AppData\Local\Temp\ccY7AKYL.s 			page 11


 297              	.LVL23:
 275:main.c        ****             
 276:main.c        ****             sensor_data.values[0] = readParams->value.val[0];
 298              		.loc 1 276 0
 299 00c4 144B     		ldr	r3, .L25+16
 300 00c6 1A70     		strb	r2, [r3]
 277:main.c        ****             sensor_data.values[1] = readParams->value.val[1];
 301              		.loc 1 277 0
 302 00c8 5D70     		strb	r5, [r3, #1]
 278:main.c        ****             sensor_data.values[2] = readParams->value.val[2];
 303              		.loc 1 278 0
 304 00ca 9C70     		strb	r4, [r3, #2]
 279:main.c        ****             
 280:main.c        ****             if(red == HIGH)
 305              		.loc 1 280 0
 306 00cc 002A     		cmp	r2, #0
 307 00ce 03D1     		bne	.L20
 281:main.c        ****                 Pin_Red_Write(HIGH);
 308              		.loc 1 281 0
 309 00d0 0020     		mov	r0, #0
 310              	.LVL24:
 311 00d2 FFF7FEFF 		bl	Pin_Red_Write
 312              	.LVL25:
 313 00d6 02E0     		b	.L21
 314              	.LVL26:
 315              	.L20:
 282:main.c        ****             else
 283:main.c        ****                 Pin_Red_Write(LOW);
 316              		.loc 1 283 0
 317 00d8 0120     		mov	r0, #1
 318              	.LVL27:
 319 00da FFF7FEFF 		bl	Pin_Red_Write
 320              	.LVL28:
 321              	.L21:
 284:main.c        ****                 
 285:main.c        ****             if(green == HIGH)
 322              		.loc 1 285 0
 323 00de 002D     		cmp	r5, #0
 324 00e0 03D1     		bne	.L22
 286:main.c        ****                 Pin_Green_Write(HIGH);
 325              		.loc 1 286 0
 326 00e2 0020     		mov	r0, #0
 327 00e4 FFF7FEFF 		bl	Pin_Green_Write
 328              	.LVL29:
 329 00e8 02E0     		b	.L23
 330              	.L22:
 287:main.c        ****             else
 288:main.c        ****                 Pin_Green_Write(LOW);
 331              		.loc 1 288 0
 332 00ea 0120     		mov	r0, #1
 333 00ec FFF7FEFF 		bl	Pin_Green_Write
 334              	.LVL30:
 335              	.L23:
 289:main.c        ****                 
 290:main.c        ****             if(blue == HIGH)
 336              		.loc 1 290 0
 337 00f0 002C     		cmp	r4, #0
ARM GAS  C:\Users\Harsha\AppData\Local\Temp\ccY7AKYL.s 			page 12


 338 00f2 03D1     		bne	.L24
 291:main.c        ****                 Pin_Blue_Write(HIGH);
 339              		.loc 1 291 0
 340 00f4 0020     		mov	r0, #0
 341 00f6 FFF7FEFF 		bl	Pin_Blue_Write
 342              	.LVL31:
 343 00fa 02E0     		b	.L8
 344              	.L24:
 292:main.c        ****             else
 293:main.c        ****                 Pin_Blue_Write(LOW);    
 345              		.loc 1 293 0
 346 00fc 0120     		mov	r0, #1
 347 00fe FFF7FEFF 		bl	Pin_Blue_Write
 348              	.LVL32:
 349              	.L8:
 294:main.c        ****             
 295:main.c        ****             
 296:main.c        ****             
 297:main.c        ****             
 298:main.c        **** 		break;
 299:main.c        **** 			
 300:main.c        **** 	}
 301:main.c        **** }
 350              		.loc 1 301 0
 351 0102 07B0     		add	sp, sp, #28
 352              		@ sp needed
 353 0104 30BD     		pop	{r4, r5, pc}
 354              	.L26:
 355 0106 C046     		.align	2
 356              	.L25:
 357 0108 00000000 		.word	.LANCHOR0
 358 010c 00000000 		.word	cyBle_state
 359 0110 00000000 		.word	connHandle
 360 0114 00000000 		.word	list_of_devices
 361 0118 00000000 		.word	sensor_data
 362              		.cfi_endproc
 363              	.LFE37:
 364              		.size	BluetoothEventHandler, .-BluetoothEventHandler
 365              		.section	.text.updateGATTDB,"ax",%progbits
 366              		.align	2
 367              		.global	updateGATTDB
 368              		.code	16
 369              		.thumb_func
 370              		.type	updateGATTDB, %function
 371              	updateGATTDB:
 372              	.LFB38:
 302:main.c        **** 
 303:main.c        **** /*
 304:main.c        **** Name: updateGATTDB
 305:main.c        **** Description: This function will update Client's GATTDB so that server can read the values
 306:main.c        ****              Here I am storing a 1 byte value as LED ON OFF status in client's GATT DB. 
 307:main.c        ****              Whenever server do a read on client, the values in GATTDB will be sent to server.
 308:main.c        **** Parameters: onOFF - value to be sent to client
 309:main.c        **** Return: - 
 310:main.c        **** */
 311:main.c        **** void updateGATTDB(uint8 onOff)
 312:main.c        **** {
ARM GAS  C:\Users\Harsha\AppData\Local\Temp\ccY7AKYL.s 			page 13


 373              		.loc 1 312 0
 374              		.cfi_startproc
 375              	.LVL33:
 376 0000 00B5     		push	{lr}
 377              		.cfi_def_cfa_offset 4
 378              		.cfi_offset 14, -4
 379 0002 85B0     		sub	sp, sp, #20
 380              		.cfi_def_cfa_offset 24
 313:main.c        ****      CYBLE_GATT_HANDLE_VALUE_PAIR_T		OnOffDataHandle; //This describes the data to be sent to serve
 314:main.c        ****        
 315:main.c        ****     union ClientBytes ExampleData; //This is the data to be stored in DB
 316:main.c        ****     
 317:main.c        ****     //Put that value to the Client DB datastructure.
 318:main.c        ****     ExampleData.values[0] = onOff;   
 381              		.loc 1 318 0
 382 0004 6B46     		mov	r3, sp
 383 0006 1870     		strb	r0, [r3]
 319:main.c        ****     
 320:main.c        ****     //Before committing the value to GATTDB, process any previous
 321:main.c        ****     //bluetooth signals.
 322:main.c        ****     CyBle_ProcessEvents();
 384              		.loc 1 322 0
 385 0008 FFF7FEFF 		bl	CyBle_ProcessEvents
 386              	.LVL34:
 323:main.c        ****             
 324:main.c        ****     OnOffDataHandle.attrHandle = 0x000Cu; //CYBLE_ONOFFSERVICE_CUSTOM_CHARACTERISTIC_CHAR_HANDLE in
 387              		.loc 1 324 0
 388 000c 01A8     		add	r0, sp, #4
 389 000e 0C23     		mov	r3, #12
 390 0010 0381     		strh	r3, [r0, #8]
 325:main.c        ****     OnOffDataHandle.value.val = ExampleData.bytes; //Actual values to be stored
 391              		.loc 1 325 0
 392 0012 6B46     		mov	r3, sp
 393 0014 0193     		str	r3, [sp, #4]
 326:main.c        **** 	OnOffDataHandle.value.len = 1; //Number of bytes to be transferred or stored
 394              		.loc 1 326 0
 395 0016 0123     		mov	r3, #1
 396 0018 8380     		strh	r3, [r0, #4]
 327:main.c        ****     
 328:main.c        ****     //This function call will store the value to the Client GATTDB. 
 329:main.c        ****     // Any read requests from server after executing below function will 
 330:main.c        ****     // reflect the new values
 331:main.c        ****     CyBle_GattsWriteAttributeValue(&OnOffDataHandle, 
 397              		.loc 1 331 0
 398 001a 0021     		mov	r1, #0
 399 001c 024A     		ldr	r2, .L28
 400 001e 0023     		mov	r3, #0
 401 0020 FFF7FEFF 		bl	CyBle_GattsWriteAttributeValue
 402              	.LVL35:
 332:main.c        **** 									FALSE, 
 333:main.c        **** 									&cyBle_connHandle, 
 334:main.c        **** 									CYBLE_GATT_DB_LOCALLY_INITIATED);
 335:main.c        ****     
 336:main.c        **** }
 403              		.loc 1 336 0
 404 0024 05B0     		add	sp, sp, #20
 405              		@ sp needed
ARM GAS  C:\Users\Harsha\AppData\Local\Temp\ccY7AKYL.s 			page 14


 406 0026 00BD     		pop	{pc}
 407              	.L29:
 408              		.align	2
 409              	.L28:
 410 0028 00000000 		.word	cyBle_connHandle
 411              		.cfi_endproc
 412              	.LFE38:
 413              		.size	updateGATTDB, .-updateGATTDB
 414              		.section	.text.InitializeSystem,"ax",%progbits
 415              		.align	2
 416              		.global	InitializeSystem
 417              		.code	16
 418              		.thumb_func
 419              		.type	InitializeSystem, %function
 420              	InitializeSystem:
 421              	.LFB40:
 337:main.c        **** 
 338:main.c        **** 
 339:main.c        **** int main()
 340:main.c        **** {
 341:main.c        **** 	InitializeSystem();
 342:main.c        ****     
 343:main.c        ****     /* Place your initialization/startup code here (e.g. MyInst_Start()) */
 344:main.c        **** 
 345:main.c        ****     for(;;)
 346:main.c        ****     {
 347:main.c        ****         /*Process Event callback to handle BLE events. The events generated and 
 348:main.c        **** 		* used for this application are inside the 'ApplicationEventHandler' routine */
 349:main.c        **** 		CyBle_ProcessEvents();
 350:main.c        ****         
 351:main.c        ****         if(peripheralFound)
 352:main.c        ****         {
 353:main.c        **** 			/* If the desired peripheral is found, then connect to that peripheral */
 354:main.c        **** 			CyBle_GapcConnectDevice(&connectPeriphDevice);
 355:main.c        **** 
 356:main.c        **** 			/* Call CyBle_ProcessEvents() once to process the Connect request sent above. */
 357:main.c        **** 			CyBle_ProcessEvents();
 358:main.c        **** 		
 359:main.c        **** 			/* Reset flag to prevent resending the Connect command */
 360:main.c        **** 			peripheralFound = FALSE;
 361:main.c        **** 		}
 362:main.c        ****     
 363:main.c        ****         /* If rescanning flag is TRUE, the restart the scan */
 364:main.c        **** 		if(restartScanning)
 365:main.c        **** 		{
 366:main.c        **** 			/* Reset flag to prevent calling multiple Start Scan commands */
 367:main.c        **** 			restartScanning = FALSE;
 368:main.c        **** 			
 369:main.c        **** 			/* Start Fast BLE Scanning. This API will only take effect after calling
 370:main.c        **** 			* CyBle_ProcessEvents()*/
 371:main.c        **** 			CyBle_GapcStartScan(CYBLE_SCANNING_FAST);
 372:main.c        **** 		}   
 373:main.c        ****         
 374:main.c        ****         if(deviceConnected)
 375:main.c        ****         {
 376:main.c        ****             //If server is connected than request the data from the server
 377:main.c        ****             //Here we are reading 3 byte array for RGB from server
ARM GAS  C:\Users\Harsha\AppData\Local\Temp\ccY7AKYL.s 			page 15


 378:main.c        ****             // We are interested in CYBLE_CUSTOMSERVICE_TRANSMITDATA_CHAR_HANDLE
 379:main.c        ****          CyBle_GattcReadCharacteristicValue(connHandle, 0x000Eu);   //*****Characteristic Handle Fr
 380:main.c        ****         }
 381:main.c        ****         
 382:main.c        ****         if(Pin_Button_Read() == HIGH)
 383:main.c        ****         {
 384:main.c        ****             if(OnOff == 0)
 385:main.c        ****                 OnOff = 1;
 386:main.c        ****             else
 387:main.c        ****                 OnOff = 0;
 388:main.c        ****             //Update the new value to Client DB so that Server can get new values
 389:main.c        ****             updateGATTDB(OnOff);
 390:main.c        ****         }
 391:main.c        ****         
 392:main.c        **** 
 393:main.c        ****         //Just to show in UART, what values we recieved from Server
 394:main.c        ****       sprintf(buf, "red = %d\ngreen = %d\nblue = %d\n\n", sensor_data.values[0], sensor_data.values
 395:main.c        ****       SERIAL_UartPutString(buf);
 396:main.c        ****     
 397:main.c        ****     
 398:main.c        ****     }
 399:main.c        **** }
 400:main.c        **** 
 401:main.c        **** /*
 402:main.c        **** Name: InitializeSystem
 403:main.c        **** Description: This function will bring your system to ready state or initial state
 404:main.c        ****              Here we switch on components like bluetooth or UART, switch of LEDs
 405:main.c        ****              like that.
 406:main.c        **** Parameters: - 
 407:main.c        **** Return: - 
 408:main.c        **** */
 409:main.c        **** void InitializeSystem(void)
 410:main.c        **** {
 422              		.loc 1 410 0
 423              		.cfi_startproc
 424 0000 08B5     		push	{r3, lr}
 425              		.cfi_def_cfa_offset 8
 426              		.cfi_offset 3, -8
 427              		.cfi_offset 14, -4
 411:main.c        **** 	/* Enable global interrupts. */
 412:main.c        **** 	CyGlobalIntEnable; 
 428              		.loc 1 412 0
 429              	@ 412 "main.c" 1
 430 0002 62B6     		CPSIE   i
 431              	@ 0 "" 2
 413:main.c        **** 	
 414:main.c        ****     //Start the UART
 415:main.c        ****     SERIAL_Start();
 432              		.loc 1 415 0
 433              		.code	16
 434 0004 FFF7FEFF 		bl	SERIAL_Start
 435              	.LVL36:
 416:main.c        ****     
 417:main.c        **** 	/* Start BLE component with appropriate Event handler function */
 418:main.c        **** 	CyBle_Start(BluetoothEventHandler);	
 436              		.loc 1 418 0
 437 0008 0648     		ldr	r0, .L31
ARM GAS  C:\Users\Harsha\AppData\Local\Temp\ccY7AKYL.s 			page 16


 438 000a FFF7FEFF 		bl	CyBle_Start
 439              	.LVL37:
 419:main.c        **** 	
 420:main.c        **** 	/* Load the BD address of peripheral device to which we have to connect */
 421:main.c        **** 	LoadPeripheralDeviceData(); 
 440              		.loc 1 421 0
 441 000e FFF7FEFF 		bl	LoadPeripheralDeviceData
 442              	.LVL38:
 422:main.c        ****     
 423:main.c        ****     sensor_data.values[0] = 0;
 443              		.loc 1 423 0
 444 0012 054A     		ldr	r2, .L31+4
 445 0014 0023     		mov	r3, #0
 446 0016 1370     		strb	r3, [r2]
 424:main.c        ****     sensor_data.values[1] = 0;
 447              		.loc 1 424 0
 448 0018 5370     		strb	r3, [r2, #1]
 425:main.c        ****     sensor_data.values[2] = 0;
 449              		.loc 1 425 0
 450 001a 9370     		strb	r3, [r2, #2]
 426:main.c        ****     
 427:main.c        ****     OnOff = 0;
 451              		.loc 1 427 0
 452 001c 034A     		ldr	r2, .L31+8
 453 001e 1371     		strb	r3, [r2, #4]
 428:main.c        ****     
 429:main.c        ****     
 430:main.c        **** 	
 431:main.c        **** }
 454              		.loc 1 431 0
 455              		@ sp needed
 456 0020 08BD     		pop	{r3, pc}
 457              	.L32:
 458 0022 C046     		.align	2
 459              	.L31:
 460 0024 00000000 		.word	BluetoothEventHandler
 461 0028 00000000 		.word	sensor_data
 462 002c 00000000 		.word	.LANCHOR0
 463              		.cfi_endproc
 464              	.LFE40:
 465              		.size	InitializeSystem, .-InitializeSystem
 466              		.section	.text.main,"ax",%progbits
 467              		.align	2
 468              		.global	main
 469              		.code	16
 470              		.thumb_func
 471              		.type	main, %function
 472              	main:
 473              	.LFB39:
 340:main.c        **** 	InitializeSystem();
 474              		.loc 1 340 0
 475              		.cfi_startproc
 476 0000 10B5     		push	{r4, lr}
 477              		.cfi_def_cfa_offset 8
 478              		.cfi_offset 4, -8
 479              		.cfi_offset 14, -4
 480 0002 82B0     		sub	sp, sp, #8
ARM GAS  C:\Users\Harsha\AppData\Local\Temp\ccY7AKYL.s 			page 17


 481              		.cfi_def_cfa_offset 16
 341:main.c        ****     
 482              		.loc 1 341 0
 483 0004 FFF7FEFF 		bl	InitializeSystem
 484              	.LVL39:
 485              	.L40:
 349:main.c        ****         
 486              		.loc 1 349 0
 487 0008 FFF7FEFF 		bl	CyBle_ProcessEvents
 488              	.LVL40:
 351:main.c        ****         {
 489              		.loc 1 351 0
 490 000c 214B     		ldr	r3, .L41
 491 000e 1B78     		ldrb	r3, [r3]
 492 0010 002B     		cmp	r3, #0
 493 0012 07D0     		beq	.L34
 354:main.c        **** 
 494              		.loc 1 354 0
 495 0014 2048     		ldr	r0, .L41+4
 496 0016 FFF7FEFF 		bl	CyBle_GapcConnectDevice
 497              	.LVL41:
 357:main.c        **** 		
 498              		.loc 1 357 0
 499 001a FFF7FEFF 		bl	CyBle_ProcessEvents
 500              	.LVL42:
 360:main.c        **** 		}
 501              		.loc 1 360 0
 502 001e 0022     		mov	r2, #0
 503 0020 1C4B     		ldr	r3, .L41
 504 0022 1A70     		strb	r2, [r3]
 505              	.L34:
 364:main.c        **** 		{
 506              		.loc 1 364 0
 507 0024 1B4B     		ldr	r3, .L41
 508 0026 5B78     		ldrb	r3, [r3, #1]
 509 0028 002B     		cmp	r3, #0
 510 002a 05D0     		beq	.L35
 367:main.c        **** 			
 511              		.loc 1 367 0
 512 002c 0022     		mov	r2, #0
 513 002e 194B     		ldr	r3, .L41
 514 0030 5A70     		strb	r2, [r3, #1]
 371:main.c        **** 		}   
 515              		.loc 1 371 0
 516 0032 0020     		mov	r0, #0
 517 0034 FFF7FEFF 		bl	CyBle_GapcStartScan
 518              	.LVL43:
 519              	.L35:
 374:main.c        ****         {
 520              		.loc 1 374 0
 521 0038 164B     		ldr	r3, .L41
 522 003a DB78     		ldrb	r3, [r3, #3]
 523 003c 002B     		cmp	r3, #0
 524 003e 07D0     		beq	.L36
 379:main.c        ****         }
 525              		.loc 1 379 0
 526 0040 164A     		ldr	r2, .L41+8
ARM GAS  C:\Users\Harsha\AppData\Local\Temp\ccY7AKYL.s 			page 18


 527 0042 1378     		ldrb	r3, [r2]
 528 0044 5078     		ldrb	r0, [r2, #1]
 529 0046 0002     		lsl	r0, r0, #8
 530 0048 1843     		orr	r0, r3
 531 004a 0E21     		mov	r1, #14
 532 004c FFF7FEFF 		bl	CyBle_GattcReadCharacteristicValue
 533              	.LVL44:
 534              	.L36:
 382:main.c        ****         {
 535              		.loc 1 382 0
 536 0050 FFF7FEFF 		bl	Pin_Button_Read
 537              	.LVL45:
 538 0054 0028     		cmp	r0, #0
 539 0056 0ED1     		bne	.L37
 384:main.c        ****                 OnOff = 1;
 540              		.loc 1 384 0
 541 0058 0E4B     		ldr	r3, .L41
 542 005a 1B79     		ldrb	r3, [r3, #4]
 543 005c 002B     		cmp	r3, #0
 544 005e 03D1     		bne	.L38
 385:main.c        ****             else
 545              		.loc 1 385 0
 546 0060 0122     		mov	r2, #1
 547 0062 0C4B     		ldr	r3, .L41
 548 0064 1A71     		strb	r2, [r3, #4]
 549 0066 02E0     		b	.L39
 550              	.L38:
 387:main.c        ****             //Update the new value to Client DB so that Server can get new values
 551              		.loc 1 387 0
 552 0068 0022     		mov	r2, #0
 553 006a 0A4B     		ldr	r3, .L41
 554 006c 1A71     		strb	r2, [r3, #4]
 555              	.L39:
 389:main.c        ****         }
 556              		.loc 1 389 0
 557 006e 094B     		ldr	r3, .L41
 558 0070 1879     		ldrb	r0, [r3, #4]
 559 0072 FFF7FEFF 		bl	updateGATTDB
 560              	.LVL46:
 561              	.L37:
 394:main.c        ****       SERIAL_UartPutString(buf);
 562              		.loc 1 394 0
 563 0076 0A49     		ldr	r1, .L41+12
 564 0078 0A78     		ldrb	r2, [r1]
 565 007a 4B78     		ldrb	r3, [r1, #1]
 566 007c 8978     		ldrb	r1, [r1, #2]
 567 007e 094C     		ldr	r4, .L41+16
 568 0080 0091     		str	r1, [sp]
 569 0082 201C     		mov	r0, r4
 570 0084 0849     		ldr	r1, .L41+20
 571 0086 FFF7FEFF 		bl	sprintf
 572              	.LVL47:
 395:main.c        ****     
 573              		.loc 1 395 0
 574 008a 201C     		mov	r0, r4
 575 008c FFF7FEFF 		bl	SERIAL_UartPutString
 576              	.LVL48:
ARM GAS  C:\Users\Harsha\AppData\Local\Temp\ccY7AKYL.s 			page 19


 398:main.c        **** }
 577              		.loc 1 398 0
 578 0090 BAE7     		b	.L40
 579              	.L42:
 580 0092 C046     		.align	2
 581              	.L41:
 582 0094 00000000 		.word	.LANCHOR0
 583 0098 00000000 		.word	connectPeriphDevice
 584 009c 00000000 		.word	connHandle
 585 00a0 00000000 		.word	sensor_data
 586 00a4 00000000 		.word	buf
 587 00a8 00000000 		.word	.LC18
 588              		.cfi_endproc
 589              	.LFE39:
 590              		.size	main, .-main
 591              		.comm	buf,200,4
 592              		.comm	send_data,1,4
 593              		.comm	sensor_data,3,4
 594              		.global	restartScanning
 595              		.global	addedDevices
 596              		.global	peripheralFound
 597              		.comm	peripheralAddress,6,4
 598              		.comm	address_store,6,4
 599              		.global	deviceConnected
 600              		.global	OnOff
 601              		.comm	connHandle,2,4
 602              		.comm	connectPeriphDevice,7,4
 603              		.comm	list_of_devices,20,4
 604              		.section	.rodata.str1.4,"aMS",%progbits,1
 605              		.align	2
 606              	.LC18:
 607 0000 72656420 		.ascii	"red = %d\012green = %d\012blue = %d\012\012\000"
 607      3D202564 
 607      0A677265 
 607      656E203D 
 607      2025640A 
 608              		.bss
 609              		.set	.LANCHOR0,. + 0
 610              		.type	peripheralFound, %object
 611              		.size	peripheralFound, 1
 612              	peripheralFound:
 613 0000 00       		.space	1
 614              		.type	restartScanning, %object
 615              		.size	restartScanning, 1
 616              	restartScanning:
 617 0001 00       		.space	1
 618              		.type	addedDevices, %object
 619              		.size	addedDevices, 1
 620              	addedDevices:
 621 0002 00       		.space	1
 622              		.type	deviceConnected, %object
 623              		.size	deviceConnected, 1
 624              	deviceConnected:
 625 0003 00       		.space	1
 626              		.type	OnOff, %object
 627              		.size	OnOff, 1
 628              	OnOff:
ARM GAS  C:\Users\Harsha\AppData\Local\Temp\ccY7AKYL.s 			page 20


 629 0004 00       		.space	1
 630              		.text
 631              	.Letext0:
 632              		.file 2 "Generated_Source\\PSoC4/cytypes.h"
 633              		.file 3 "c:\\program files (x86)\\cypress\\psoc creator\\4.0\\psoc creator\\import\\gnu\\arm\\4.9.
 634              		.file 4 "Generated_Source\\PSoC4/BLE_1_Stack.h"
 635              		.file 5 "Generated_Source\\PSoC4/BLE_1_StackGap.h"
 636              		.file 6 "Generated_Source\\PSoC4/BLE_1_StackGatt.h"
 637              		.file 7 "Generated_Source\\PSoC4/BLE_1_StackGattClient.h"
 638              		.file 8 "Generated_Source\\PSoC4/BLE_1.h"
 639              		.file 9 "Generated_Source\\PSoC4/BLE_1_eventHandler.h"
 640              		.file 10 "./main.h"
 641              		.file 11 "c:\\program files (x86)\\cypress\\psoc creator\\4.0\\psoc creator\\import\\gnu\\arm\\4.9
 642              		.file 12 "Generated_Source\\PSoC4/BLE_1_gatt.h"
 643              		.file 13 "Generated_Source\\PSoC4/Pin_Red.h"
 644              		.file 14 "Generated_Source\\PSoC4/Pin_Green.h"
 645              		.file 15 "Generated_Source\\PSoC4/Pin_Blue.h"
 646              		.file 16 "Generated_Source\\PSoC4/BLE_1_StackGattDb.h"
 647              		.file 17 "Generated_Source\\PSoC4/SERIAL.h"
 648              		.file 18 "c:\\program files (x86)\\cypress\\psoc creator\\4.0\\psoc creator\\import\\gnu\\arm\\4.9
 649              		.file 19 "Generated_Source\\PSoC4/SERIAL_SPI_UART.h"
 650              		.file 20 "Generated_Source\\PSoC4/Pin_Button.h"