ARM GAS  C:\Users\Harsha\AppData\Local\Temp\ccBsn30u.s 			page 1


   1              		.cpu cortex-m0
   2              		.fpu softvfp
   3              		.eabi_attribute 20, 1
   4              		.eabi_attribute 21, 1
   5              		.eabi_attribute 23, 3
   6              		.eabi_attribute 24, 1
   7              		.eabi_attribute 25, 1
   8              		.eabi_attribute 26, 1
   9              		.eabi_attribute 30, 1
  10              		.eabi_attribute 34, 0
  11              		.eabi_attribute 18, 4
  12              		.code	16
  13              		.file	"BLE.c"
  14              		.text
  15              	.Ltext0:
  16              		.cfi_sections	.debug_frame
  17              		.section	.text.CyBle_ChangeAdLocalName,"ax",%progbits
  18              		.align	2
  19              		.code	16
  20              		.thumb_func
  21              		.type	CyBle_ChangeAdLocalName, %function
  22              	CyBle_ChangeAdLocalName:
  23              	.LFB9:
  24              		.file 1 "Generated_Source\\PSoC4\\BLE.c"
   1:Generated_Source\PSoC4/BLE.c **** /***************************************************************************//**
   2:Generated_Source\PSoC4/BLE.c **** * \file CYBLE.c
   3:Generated_Source\PSoC4/BLE.c **** * \version 2.20
   4:Generated_Source\PSoC4/BLE.c **** * 
   5:Generated_Source\PSoC4/BLE.c **** * \brief
   6:Generated_Source\PSoC4/BLE.c **** *  This file contains the source code for the Common APIs of the BLE Component.
   7:Generated_Source\PSoC4/BLE.c **** * 
   8:Generated_Source\PSoC4/BLE.c **** ********************************************************************************
   9:Generated_Source\PSoC4/BLE.c **** * \copyright
  10:Generated_Source\PSoC4/BLE.c **** * Copyright 2014-2015, Cypress Semiconductor Corporation.  All rights reserved.
  11:Generated_Source\PSoC4/BLE.c **** * You may use this file only in accordance with the license, terms, conditions,
  12:Generated_Source\PSoC4/BLE.c **** * disclaimers, and limitations in the end user license agreement accompanying
  13:Generated_Source\PSoC4/BLE.c **** * the software package with which this file was provided.
  14:Generated_Source\PSoC4/BLE.c **** *******************************************************************************/
  15:Generated_Source\PSoC4/BLE.c **** 
  16:Generated_Source\PSoC4/BLE.c **** #include "BLE_eventHandler.h"
  17:Generated_Source\PSoC4/BLE.c **** #include "BLE_HAL_PVT.h"
  18:Generated_Source\PSoC4/BLE.c **** #include <stdlib.h>
  19:Generated_Source\PSoC4/BLE.c **** 
  20:Generated_Source\PSoC4/BLE.c **** 
  21:Generated_Source\PSoC4/BLE.c **** /***************************************
  22:Generated_Source\PSoC4/BLE.c **** * Function Prototypes
  23:Generated_Source\PSoC4/BLE.c **** ***************************************/
  24:Generated_Source\PSoC4/BLE.c **** 
  25:Generated_Source\PSoC4/BLE.c **** #if(CYBLE_GATT_ROLE_SERVER)
  26:Generated_Source\PSoC4/BLE.c ****     #if(CYBLE_GAP_ROLE_PERIPHERAL)
  27:Generated_Source\PSoC4/BLE.c ****         static void CyBle_ChangeAdLocalName(const char8 name[], uint8 dest);
  28:Generated_Source\PSoC4/BLE.c ****     #endif /* (CYBLE_GAP_ROLE_PERIPHERAL) */
  29:Generated_Source\PSoC4/BLE.c **** #endif /* (CYBLE_GATT_ROLE_SERVER) */
  30:Generated_Source\PSoC4/BLE.c ****     
  31:Generated_Source\PSoC4/BLE.c **** 
  32:Generated_Source\PSoC4/BLE.c **** /***************************************
  33:Generated_Source\PSoC4/BLE.c **** * Global Variables
ARM GAS  C:\Users\Harsha\AppData\Local\Temp\ccBsn30u.s 			page 2


  34:Generated_Source\PSoC4/BLE.c **** ***************************************/
  35:Generated_Source\PSoC4/BLE.c **** 
  36:Generated_Source\PSoC4/BLE.c **** /* Indicates whether the BLE has been initialized. The variable is initialized to
  37:Generated_Source\PSoC4/BLE.c ****    0 and set to 1 the first time CyBle_Start() is called. This allows the component
  38:Generated_Source\PSoC4/BLE.c ****    to restart without reinitialization after the first call to the CyBle_Start() 
  39:Generated_Source\PSoC4/BLE.c ****    routine. If reinitialization of the component is required, the variable should 
  40:Generated_Source\PSoC4/BLE.c ****    be set to 0 before the CyBle_Start() routine is called. Alternatively, the BLE
  41:Generated_Source\PSoC4/BLE.c ****    can be reinitialized by calling the CyBle_Init() function.
  42:Generated_Source\PSoC4/BLE.c **** */
  43:Generated_Source\PSoC4/BLE.c **** uint8  cyBle_initVar = 0u;
  44:Generated_Source\PSoC4/BLE.c **** 
  45:Generated_Source\PSoC4/BLE.c **** /* Allocate RAM memory for stack. This buffer could be reused by application when 
  46:Generated_Source\PSoC4/BLE.c ****    BLE component is stopped. For export mode buffer is allocated in heap.
  47:Generated_Source\PSoC4/BLE.c **** */
  48:Generated_Source\PSoC4/BLE.c **** #if(CYBLE_SHARING_MODE_EXPORT)
  49:Generated_Source\PSoC4/BLE.c ****     
  50:Generated_Source\PSoC4/BLE.c **** uint8 *cyBle_stackMemoryRam = NULL;
  51:Generated_Source\PSoC4/BLE.c **** 
  52:Generated_Source\PSoC4/BLE.c **** #else
  53:Generated_Source\PSoC4/BLE.c **** 
  54:Generated_Source\PSoC4/BLE.c **** CYBLE_CYALIGNED_BEGIN uint8 cyBle_stackMemoryRam[CYBLE_STACK_RAM_SIZE] CYBLE_CYALIGNED_END;
  55:Generated_Source\PSoC4/BLE.c **** 
  56:Generated_Source\PSoC4/BLE.c **** #endif  /* CYBLE_SHARING_MODE_EXPORT */
  57:Generated_Source\PSoC4/BLE.c **** 
  58:Generated_Source\PSoC4/BLE.c **** #if(CYBLE_GAP_ROLE_PERIPHERAL || CYBLE_GAP_ROLE_BROADCASTER)
  59:Generated_Source\PSoC4/BLE.c **** 
  60:Generated_Source\PSoC4/BLE.c **** CYBLE_GAPP_DISC_PARAM_T cyBle_discoveryParam =
  61:Generated_Source\PSoC4/BLE.c **** {
  62:Generated_Source\PSoC4/BLE.c ****     0x0020u,    /* uint16 advertising_interval_min */
  63:Generated_Source\PSoC4/BLE.c ****     0x0020u,    /* uint16 advertising_interval_max */
  64:Generated_Source\PSoC4/BLE.c ****     CYBLE_GAPP_CONNECTABLE_UNDIRECTED_ADV, /* uint8 advertising_type */
  65:Generated_Source\PSoC4/BLE.c ****     0x00u,      /* uint8 own_addr_type */
  66:Generated_Source\PSoC4/BLE.c ****     0x00u,      /* uint8 direct_addr_type */
  67:Generated_Source\PSoC4/BLE.c ****     {0x00u, 0x00u, 0x00u, 0x50u, 0xA0u, 0x00u}, /* uint8* direct_addr */
  68:Generated_Source\PSoC4/BLE.c ****     0x07u,      /* uint8 advertising_channel_map */
  69:Generated_Source\PSoC4/BLE.c ****     0x00u,      /* uint8 advertising_filter_policy */
  70:Generated_Source\PSoC4/BLE.c **** };
  71:Generated_Source\PSoC4/BLE.c **** 
  72:Generated_Source\PSoC4/BLE.c **** CYBLE_GAPP_DISC_DATA_T cyBle_discoveryData =
  73:Generated_Source\PSoC4/BLE.c **** {
  74:Generated_Source\PSoC4/BLE.c ****     { 0x02u, 0x01u, 0x06u, 0x0Bu, 0x09u, 0x53u, 0x65u,
  75:Generated_Source\PSoC4/BLE.c ****     0x72u, 0x76u, 0x65u, 0x72u, 0x20u, 0x42u, 0x4Cu, 0x45u,
  76:Generated_Source\PSoC4/BLE.c ****     0x00u, 0x00u, 0x00u, 0x00u, 0x00u, 0x00u, 0x00u, 0x00u,
  77:Generated_Source\PSoC4/BLE.c ****     0x00u, 0x00u, 0x00u, 0x00u, 0x00u, 0x00u, 0x00u, 0x00u }, /* uint8 advertising_data[CYBLE_MAX_A
  78:Generated_Source\PSoC4/BLE.c ****     0x0Fu,      /* uint8 adv_data_length */
  79:Generated_Source\PSoC4/BLE.c **** };
  80:Generated_Source\PSoC4/BLE.c **** 
  81:Generated_Source\PSoC4/BLE.c **** CYBLE_GAPP_SCAN_RSP_DATA_T cyBle_scanRspData =
  82:Generated_Source\PSoC4/BLE.c **** {
  83:Generated_Source\PSoC4/BLE.c ****     { 0x00u, 0x00u, 0x00u, 0x00u, 0x00u, 0x00u, 0x00u,
  84:Generated_Source\PSoC4/BLE.c ****     0x00u, 0x00u, 0x00u, 0x00u, 0x00u, 0x00u, 0x00u, 0x00u,
  85:Generated_Source\PSoC4/BLE.c ****     0x00u, 0x00u, 0x00u, 0x00u, 0x00u, 0x00u, 0x00u, 0x00u,
  86:Generated_Source\PSoC4/BLE.c ****     0x00u, 0x00u, 0x00u, 0x00u, 0x00u, 0x00u, 0x00u, 0x00u }, /* uint8 scan_rsp_data[CYBLE_MAX_SCAN
  87:Generated_Source\PSoC4/BLE.c ****     0x00u,      /* uint8 scan_rsp_data_length */
  88:Generated_Source\PSoC4/BLE.c **** };
  89:Generated_Source\PSoC4/BLE.c **** 
  90:Generated_Source\PSoC4/BLE.c **** /* This variable of type CYBLE_GAPP_DISC_MODE_INFO_T is present only when 
ARM GAS  C:\Users\Harsha\AppData\Local\Temp\ccBsn30u.s 			page 3


  91:Generated_Source\PSoC4/BLE.c ****    the BLE component is configured for Peripheral GAP role or Central and 
  92:Generated_Source\PSoC4/BLE.c ****    Peripheral GAP role. It contains the Advertisement settings and also the 
  93:Generated_Source\PSoC4/BLE.c ****    Advertisement and Scan response data parameters entered in the customizer.
  94:Generated_Source\PSoC4/BLE.c ****    This variable can be used by advanced users to change Advertisement settings,
  95:Generated_Source\PSoC4/BLE.c ****    Advertisement or Scan response data in runtime. 
  96:Generated_Source\PSoC4/BLE.c **** */
  97:Generated_Source\PSoC4/BLE.c **** CYBLE_GAPP_DISC_MODE_INFO_T cyBle_discoveryModeInfo =
  98:Generated_Source\PSoC4/BLE.c **** {
  99:Generated_Source\PSoC4/BLE.c ****     0x02u,      /* uint8 discMode */
 100:Generated_Source\PSoC4/BLE.c ****     &cyBle_discoveryParam,
 101:Generated_Source\PSoC4/BLE.c ****     &cyBle_discoveryData,
 102:Generated_Source\PSoC4/BLE.c ****     &cyBle_scanRspData,
 103:Generated_Source\PSoC4/BLE.c ****     0x0000u,    /* uint16 advTo */
 104:Generated_Source\PSoC4/BLE.c **** };
 105:Generated_Source\PSoC4/BLE.c **** 
 106:Generated_Source\PSoC4/BLE.c **** 
 107:Generated_Source\PSoC4/BLE.c **** #endif /* CYBLE_GAP_ROLE_PERIPHERAL || CYBLE_GAP_ROLE_BROADCASTER */
 108:Generated_Source\PSoC4/BLE.c **** 
 109:Generated_Source\PSoC4/BLE.c **** #if(CYBLE_GAP_ROLE_CENTRAL)
 110:Generated_Source\PSoC4/BLE.c ****     
 111:Generated_Source\PSoC4/BLE.c **** CYBLE_GAPC_CONN_PARAM_T cyBle_connectionParameters;
 112:Generated_Source\PSoC4/BLE.c **** 
 113:Generated_Source\PSoC4/BLE.c **** /* Connecting timeout is set to 30 seconds in CyBle_Init function. 
 114:Generated_Source\PSoC4/BLE.c ****    Not zero value starts timer in CyBle_GapcConnectDevice API.
 115:Generated_Source\PSoC4/BLE.c **** */
 116:Generated_Source\PSoC4/BLE.c **** uint16 cyBle_connectingTimeout;
 117:Generated_Source\PSoC4/BLE.c ****     
 118:Generated_Source\PSoC4/BLE.c **** #endif /* CYBLE_GAP_ROLE_CENTRAL */
 119:Generated_Source\PSoC4/BLE.c **** 
 120:Generated_Source\PSoC4/BLE.c **** #if(CYBLE_GAP_ROLE_CENTRAL || CYBLE_GAP_ROLE_OBSERVER)
 121:Generated_Source\PSoC4/BLE.c ****     
 122:Generated_Source\PSoC4/BLE.c **** 
 123:Generated_Source\PSoC4/BLE.c ****     
 124:Generated_Source\PSoC4/BLE.c **** #endif /* CYBLE_GAP_ROLE_CENTRAL || CYBLE_GAP_ROLE_OBSERVER */
 125:Generated_Source\PSoC4/BLE.c **** 
 126:Generated_Source\PSoC4/BLE.c **** #if((CYBLE_GAP_ROLE_PERIPHERAL || CYBLE_GAP_ROLE_CENTRAL) && (CYBLE_BONDING_REQUIREMENT == CYBLE_BO
 127:Generated_Source\PSoC4/BLE.c **** 
 128:Generated_Source\PSoC4/BLE.c **** uint8 cyBle_peerBonding;
 129:Generated_Source\PSoC4/BLE.c **** uint8 cyBle_pendingFlashWrite;
 130:Generated_Source\PSoC4/BLE.c ****     
 131:Generated_Source\PSoC4/BLE.c **** #endif  /* (CYBLE_BONDING_REQUIREMENT == CYBLE_BONDING_YES) */
 132:Generated_Source\PSoC4/BLE.c **** 
 133:Generated_Source\PSoC4/BLE.c **** CYBLE_CALLBACK_T CyBle_ApplCallback;
 134:Generated_Source\PSoC4/BLE.c **** CYBLE_GAP_BD_ADDR_T cyBle_deviceAddress = {{0x00u, 0x00u, 0x00u, 0x50u, 0xA0u, 0x00u}, 0x00u };
 135:Generated_Source\PSoC4/BLE.c **** CYBLE_GAP_BD_ADDR_T * cyBle_sflashDeviceAddress = CYBLE_SFLASH_DEVICE_ADDRESS_PTR;
 136:Generated_Source\PSoC4/BLE.c **** 
 137:Generated_Source\PSoC4/BLE.c **** #if(CYBLE_MODE_PROFILE)
 138:Generated_Source\PSoC4/BLE.c ****     #if defined(__ARMCC_VERSION)
 139:Generated_Source\PSoC4/BLE.c ****         CY_ALIGN(CYDEV_FLS_ROW_SIZE) const uint8 cyBle_StackFlashptr[CYBLE_STACK_FLASH_SIZE] = {0u}
 140:Generated_Source\PSoC4/BLE.c ****     #elif defined (__GNUC__)
 141:Generated_Source\PSoC4/BLE.c ****         const uint8 cyBle_StackFlashptr[CYBLE_STACK_FLASH_SIZE] CY_ALIGN(CYDEV_FLS_ROW_SIZE) = {0u}
 142:Generated_Source\PSoC4/BLE.c ****     #elif defined (__ICCARM__)
 143:Generated_Source\PSoC4/BLE.c ****         #pragma data_alignment=CY_FLASH_SIZEOF_ROW
 144:Generated_Source\PSoC4/BLE.c ****         const uint8 cyBle_StackFlashptr[CYBLE_STACK_FLASH_SIZE] = {0u};
 145:Generated_Source\PSoC4/BLE.c ****     #endif  /* (__ARMCC_VERSION) */
 146:Generated_Source\PSoC4/BLE.c **** #endif /* (CYBLE_MODE_PROFILE) */
 147:Generated_Source\PSoC4/BLE.c **** 
ARM GAS  C:\Users\Harsha\AppData\Local\Temp\ccBsn30u.s 			page 4


 148:Generated_Source\PSoC4/BLE.c **** 
 149:Generated_Source\PSoC4/BLE.c **** /******************************************************************************
 150:Generated_Source\PSoC4/BLE.c **** * Function Name: CyBle_Init
 151:Generated_Source\PSoC4/BLE.c **** ***************************************************************************//**
 152:Generated_Source\PSoC4/BLE.c **** *   Initializes the component with the parameters set in the customizer.
 153:Generated_Source\PSoC4/BLE.c **** * 
 154:Generated_Source\PSoC4/BLE.c **** *  \return
 155:Generated_Source\PSoC4/BLE.c **** *   None
 156:Generated_Source\PSoC4/BLE.c **** * 
 157:Generated_Source\PSoC4/BLE.c **** ******************************************************************************/
 158:Generated_Source\PSoC4/BLE.c **** void CyBle_Init(void)
 159:Generated_Source\PSoC4/BLE.c **** {
 160:Generated_Source\PSoC4/BLE.c ****     cyBle_eventHandlerFlag = 0u;
 161:Generated_Source\PSoC4/BLE.c ****     cyBle_busyStatus = CYBLE_STACK_STATE_FREE;
 162:Generated_Source\PSoC4/BLE.c **** 
 163:Generated_Source\PSoC4/BLE.c ****     #if(CYBLE_GAP_ROLE_PERIPHERAL || CYBLE_GAP_ROLE_BROADCASTER) 
 164:Generated_Source\PSoC4/BLE.c ****         cyBle_advertisingIntervalType = CYBLE_ADVERTISING_FAST; 
 165:Generated_Source\PSoC4/BLE.c ****     #endif /* (CYBLE_GAP_ROLE_PERIPHERAL || CYBLE_GAP_ROLE_BROADCASTER)  */
 166:Generated_Source\PSoC4/BLE.c ****     #if(CYBLE_GAP_ROLE_CENTRAL || CYBLE_GAP_ROLE_OBSERVER)
 167:Generated_Source\PSoC4/BLE.c ****         cyBle_scanningIntervalType = CYBLE_SCANNING_FAST; 
 168:Generated_Source\PSoC4/BLE.c ****     #endif /* (CYBLE_GAP_ROLE_CENTRAL || CYBLE_GAP_ROLE_OBSERVER) */
 169:Generated_Source\PSoC4/BLE.c ****         
 170:Generated_Source\PSoC4/BLE.c ****     /* Init default connection parameters. 
 171:Generated_Source\PSoC4/BLE.c ****        Application may change it before initiating a connection */
 172:Generated_Source\PSoC4/BLE.c ****     #if(CYBLE_GAP_ROLE_CENTRAL)
 173:Generated_Source\PSoC4/BLE.c ****         cyBle_connectionParameters.scanIntv = cyBle_discoveryInfo.scanIntv;
 174:Generated_Source\PSoC4/BLE.c ****         cyBle_connectionParameters.scanWindow = cyBle_discoveryInfo.scanWindow;
 175:Generated_Source\PSoC4/BLE.c ****         cyBle_connectionParameters.ownAddrType = cyBle_discoveryInfo.ownAddrType;
 176:Generated_Source\PSoC4/BLE.c ****         cyBle_connectionParameters.initiatorFilterPolicy = cyBle_discoveryInfo.scanFilterPolicy;
 177:Generated_Source\PSoC4/BLE.c ****         cyBle_connectionParameters.connIntvMin = CYBLE_GAPC_CONNECTION_INTERVAL_MIN;
 178:Generated_Source\PSoC4/BLE.c ****         cyBle_connectionParameters.connIntvMax = CYBLE_GAPC_CONNECTION_INTERVAL_MAX;
 179:Generated_Source\PSoC4/BLE.c ****         cyBle_connectionParameters.connLatency = CYBLE_GAPC_CONNECTION_SLAVE_LATENCY;
 180:Generated_Source\PSoC4/BLE.c ****         cyBle_connectionParameters.supervisionTO = CYBLE_GAPC_CONNECTION_TIME_OUT;
 181:Generated_Source\PSoC4/BLE.c ****         cyBle_connectionParameters.minCeLength = 0x0000u;
 182:Generated_Source\PSoC4/BLE.c ****         cyBle_connectionParameters.maxCeLength = 0xFFFFu;
 183:Generated_Source\PSoC4/BLE.c ****         
 184:Generated_Source\PSoC4/BLE.c ****         cyBle_connectingTimeout = CYBLE_GAPC_CONNECTING_TIMEOUT;
 185:Generated_Source\PSoC4/BLE.c ****     #endif /* CYBLE_GAP_ROLE_CENTRAL */
 186:Generated_Source\PSoC4/BLE.c **** 
 187:Generated_Source\PSoC4/BLE.c ****     CyBle_ServiceInit();
 188:Generated_Source\PSoC4/BLE.c **** 
 189:Generated_Source\PSoC4/BLE.c ****     #if((CYBLE_GAP_ROLE_PERIPHERAL || CYBLE_GAP_ROLE_CENTRAL) && (CYBLE_BONDING_REQUIREMENT == CYBL
 190:Generated_Source\PSoC4/BLE.c ****         cyBle_pendingFlashWrite = 0u;
 191:Generated_Source\PSoC4/BLE.c ****         cyBle_peerBonding = CYBLE_GAP_BONDING_NONE;
 192:Generated_Source\PSoC4/BLE.c ****     #endif  /* (CYBLE_BONDING_REQUIREMENT == CYBLE_BONDING_YES) */
 193:Generated_Source\PSoC4/BLE.c **** 
 194:Generated_Source\PSoC4/BLE.c **** }
 195:Generated_Source\PSoC4/BLE.c **** 
 196:Generated_Source\PSoC4/BLE.c **** 
 197:Generated_Source\PSoC4/BLE.c **** /******************************************************************************
 198:Generated_Source\PSoC4/BLE.c **** * Function Name: CyBle_ServiceInit
 199:Generated_Source\PSoC4/BLE.c **** ***************************************************************************//**
 200:Generated_Source\PSoC4/BLE.c **** * 
 201:Generated_Source\PSoC4/BLE.c **** *  Initializes all included services.
 202:Generated_Source\PSoC4/BLE.c **** * 
 203:Generated_Source\PSoC4/BLE.c **** * \return
 204:Generated_Source\PSoC4/BLE.c **** *  None
ARM GAS  C:\Users\Harsha\AppData\Local\Temp\ccBsn30u.s 			page 5


 205:Generated_Source\PSoC4/BLE.c **** * 
 206:Generated_Source\PSoC4/BLE.c **** ******************************************************************************/
 207:Generated_Source\PSoC4/BLE.c **** void CyBle_ServiceInit(void)
 208:Generated_Source\PSoC4/BLE.c **** {
 209:Generated_Source\PSoC4/BLE.c ****     #if(CYBLE_GATT_ROLE_CLIENT)
 210:Generated_Source\PSoC4/BLE.c ****         (void)memset(&cyBle_gapc, 0, sizeof(cyBle_gapc));
 211:Generated_Source\PSoC4/BLE.c ****         (void)memset(&cyBle_gattc, 0, sizeof(cyBle_gattc));
 212:Generated_Source\PSoC4/BLE.c ****     #endif /* CYBLE_GATT_ROLE_CLIENT */
 213:Generated_Source\PSoC4/BLE.c ****     
 214:Generated_Source\PSoC4/BLE.c **** 	#ifdef CYBLE_ANCS
 215:Generated_Source\PSoC4/BLE.c ****         CyBle_AncsInit();
 216:Generated_Source\PSoC4/BLE.c ****     #endif /* CYBLE_ANCS */
 217:Generated_Source\PSoC4/BLE.c **** 	
 218:Generated_Source\PSoC4/BLE.c ****     #ifdef CYBLE_ANS
 219:Generated_Source\PSoC4/BLE.c ****         CyBle_AnsInit();
 220:Generated_Source\PSoC4/BLE.c ****     #endif /* CYBLE_ANS */
 221:Generated_Source\PSoC4/BLE.c ****     
 222:Generated_Source\PSoC4/BLE.c ****     #ifdef CYBLE_BAS
 223:Generated_Source\PSoC4/BLE.c ****         CyBle_BasInit();
 224:Generated_Source\PSoC4/BLE.c ****     #endif /* CYBLE_BAS */
 225:Generated_Source\PSoC4/BLE.c ****     
 226:Generated_Source\PSoC4/BLE.c ****     #ifdef CYBLE_BLS
 227:Generated_Source\PSoC4/BLE.c ****         CyBle_BlsInit();
 228:Generated_Source\PSoC4/BLE.c ****     #endif /* CYBLE_BLS */
 229:Generated_Source\PSoC4/BLE.c ****     
 230:Generated_Source\PSoC4/BLE.c ****     #ifdef CYBLE_BMS
 231:Generated_Source\PSoC4/BLE.c ****         CyBle_BmsInit();
 232:Generated_Source\PSoC4/BLE.c ****     #endif /* CYBLE_BMS */
 233:Generated_Source\PSoC4/BLE.c ****     
 234:Generated_Source\PSoC4/BLE.c ****     #ifdef CYBLE_CGMS
 235:Generated_Source\PSoC4/BLE.c ****         CyBle_CgmsInit();
 236:Generated_Source\PSoC4/BLE.c ****     #endif /* CYBLE_CGMS */
 237:Generated_Source\PSoC4/BLE.c **** 
 238:Generated_Source\PSoC4/BLE.c ****     #ifdef CYBLE_CPS
 239:Generated_Source\PSoC4/BLE.c ****         CyBle_CpsInit();
 240:Generated_Source\PSoC4/BLE.c ****     #endif /* CYBLE_CPS */
 241:Generated_Source\PSoC4/BLE.c **** 
 242:Generated_Source\PSoC4/BLE.c ****     #ifdef CYBLE_CSCS
 243:Generated_Source\PSoC4/BLE.c ****         CyBle_CscsInit();
 244:Generated_Source\PSoC4/BLE.c ****     #endif /* CYBLE_CSCS */
 245:Generated_Source\PSoC4/BLE.c ****     
 246:Generated_Source\PSoC4/BLE.c ****     #ifdef CYBLE_CTS
 247:Generated_Source\PSoC4/BLE.c ****         CyBle_CtsInit();
 248:Generated_Source\PSoC4/BLE.c ****     #endif /* CYBLE_CTS */
 249:Generated_Source\PSoC4/BLE.c **** 
 250:Generated_Source\PSoC4/BLE.c ****     #ifdef CYBLE_DIS
 251:Generated_Source\PSoC4/BLE.c ****         CyBle_DisInit();
 252:Generated_Source\PSoC4/BLE.c ****     #endif /* CYBLE_DIS */
 253:Generated_Source\PSoC4/BLE.c **** 
 254:Generated_Source\PSoC4/BLE.c ****     #ifdef CYBLE_ESS
 255:Generated_Source\PSoC4/BLE.c ****         CyBle_EssInit();
 256:Generated_Source\PSoC4/BLE.c ****     #endif /* CYBLE_ESS */
 257:Generated_Source\PSoC4/BLE.c ****     
 258:Generated_Source\PSoC4/BLE.c ****     #ifdef CYBLE_GLS
 259:Generated_Source\PSoC4/BLE.c ****         CyBle_GlsInit();
 260:Generated_Source\PSoC4/BLE.c ****     #endif /* CYBLE_GLS */
 261:Generated_Source\PSoC4/BLE.c ****     
ARM GAS  C:\Users\Harsha\AppData\Local\Temp\ccBsn30u.s 			page 6


 262:Generated_Source\PSoC4/BLE.c ****     #ifdef CYBLE_CUSTOM
 263:Generated_Source\PSoC4/BLE.c ****         CyBle_CustomInit();
 264:Generated_Source\PSoC4/BLE.c ****     #endif /* CYBLE_CUSTOM */
 265:Generated_Source\PSoC4/BLE.c **** 
 266:Generated_Source\PSoC4/BLE.c ****     #ifdef CYBLE_HIDS
 267:Generated_Source\PSoC4/BLE.c ****         CyBle_HidsInit();
 268:Generated_Source\PSoC4/BLE.c ****     #endif /* CYBLE_HIDS */
 269:Generated_Source\PSoC4/BLE.c **** 
 270:Generated_Source\PSoC4/BLE.c ****     #ifdef CYBLE_HRS
 271:Generated_Source\PSoC4/BLE.c ****         CyBle_HrsInit();
 272:Generated_Source\PSoC4/BLE.c ****     #endif /* CYBLE_HRS */
 273:Generated_Source\PSoC4/BLE.c ****     
 274:Generated_Source\PSoC4/BLE.c ****     #ifdef CYBLE_HTS
 275:Generated_Source\PSoC4/BLE.c ****         CyBle_HtsInit();
 276:Generated_Source\PSoC4/BLE.c ****     #endif /* CYBLE_RSCS */
 277:Generated_Source\PSoC4/BLE.c **** 
 278:Generated_Source\PSoC4/BLE.c ****     #ifdef CYBLE_IAS
 279:Generated_Source\PSoC4/BLE.c ****         CyBle_IasInit();
 280:Generated_Source\PSoC4/BLE.c ****     #endif /* CYBLE_IAS */
 281:Generated_Source\PSoC4/BLE.c **** 
 282:Generated_Source\PSoC4/BLE.c ****     #ifdef CYBLE_LLS
 283:Generated_Source\PSoC4/BLE.c ****         CyBle_LlsInit();
 284:Generated_Source\PSoC4/BLE.c ****     #endif /* CYBLE_LLS */
 285:Generated_Source\PSoC4/BLE.c **** 
 286:Generated_Source\PSoC4/BLE.c ****     #ifdef CYBLE_RTUS
 287:Generated_Source\PSoC4/BLE.c ****         CyBle_RtusInit();
 288:Generated_Source\PSoC4/BLE.c ****     #endif /* CYBLE_RTUS */
 289:Generated_Source\PSoC4/BLE.c **** 
 290:Generated_Source\PSoC4/BLE.c ****     #ifdef CYBLE_LNS
 291:Generated_Source\PSoC4/BLE.c ****         CyBle_LnsInit();
 292:Generated_Source\PSoC4/BLE.c ****     #endif /* CYBLE_LNS */
 293:Generated_Source\PSoC4/BLE.c ****     
 294:Generated_Source\PSoC4/BLE.c ****     #ifdef CYBLE_PASS
 295:Generated_Source\PSoC4/BLE.c ****         CyBle_PassInit();
 296:Generated_Source\PSoC4/BLE.c ****     #endif /* CYBLE_PASS */
 297:Generated_Source\PSoC4/BLE.c ****     
 298:Generated_Source\PSoC4/BLE.c ****     #ifdef CYBLE_RSCS
 299:Generated_Source\PSoC4/BLE.c ****         CyBle_RscsInit();
 300:Generated_Source\PSoC4/BLE.c ****     #endif /* CYBLE_RSCS */
 301:Generated_Source\PSoC4/BLE.c **** 
 302:Generated_Source\PSoC4/BLE.c ****     #ifdef CYBLE_SCPS
 303:Generated_Source\PSoC4/BLE.c ****         CyBle_ScpsInit();
 304:Generated_Source\PSoC4/BLE.c ****     #endif /* CYBLE_SCPS */
 305:Generated_Source\PSoC4/BLE.c ****     
 306:Generated_Source\PSoC4/BLE.c ****     #ifdef CYBLE_TPS
 307:Generated_Source\PSoC4/BLE.c ****         CyBle_TpsInit();
 308:Generated_Source\PSoC4/BLE.c ****     #endif /* CYBLE_TPS */
 309:Generated_Source\PSoC4/BLE.c ****     
 310:Generated_Source\PSoC4/BLE.c ****     #ifdef CYBLE_UDS
 311:Generated_Source\PSoC4/BLE.c ****         CyBle_UdsInit();
 312:Generated_Source\PSoC4/BLE.c ****     #endif /* CYBLE_UDS */
 313:Generated_Source\PSoC4/BLE.c **** 
 314:Generated_Source\PSoC4/BLE.c ****     #ifdef CYBLE_WPTS
 315:Generated_Source\PSoC4/BLE.c ****         CyBle_WptsInit();
 316:Generated_Source\PSoC4/BLE.c ****     #endif /* CYBLE_WPTS */
 317:Generated_Source\PSoC4/BLE.c **** 
 318:Generated_Source\PSoC4/BLE.c ****     #ifdef CYBLE_WSS
ARM GAS  C:\Users\Harsha\AppData\Local\Temp\ccBsn30u.s 			page 7


 319:Generated_Source\PSoC4/BLE.c ****         CyBle_WssInit();
 320:Generated_Source\PSoC4/BLE.c ****     #endif /* CYBLE_WSS */
 321:Generated_Source\PSoC4/BLE.c **** }
 322:Generated_Source\PSoC4/BLE.c **** 
 323:Generated_Source\PSoC4/BLE.c **** 
 324:Generated_Source\PSoC4/BLE.c **** /******************************************************************************
 325:Generated_Source\PSoC4/BLE.c **** * Function Name: CyBle_Start
 326:Generated_Source\PSoC4/BLE.c **** ***************************************************************************//**
 327:Generated_Source\PSoC4/BLE.c **** * 
 328:Generated_Source\PSoC4/BLE.c **** *  This function initializes the BLE Stack, which consists of the BLE Stack 
 329:Generated_Source\PSoC4/BLE.c **** *  Manager, BLE Controller, and BLE Host modules. It takes care of initializing
 330:Generated_Source\PSoC4/BLE.c **** *  the Profile layer, schedulers, Timer and other platform related
 331:Generated_Source\PSoC4/BLE.c **** *  resources required for the BLE component. It also registers the callback 
 332:Generated_Source\PSoC4/BLE.c **** *  function for BLE events that will be registered in the BLE stack.
 333:Generated_Source\PSoC4/BLE.c **** * 
 334:Generated_Source\PSoC4/BLE.c **** *  Note that this function does not reset the BLE Stack.
 335:Generated_Source\PSoC4/BLE.c **** * 
 336:Generated_Source\PSoC4/BLE.c **** *  For HCI-Mode of operation, this function will not initialize the BLE Host 
 337:Generated_Source\PSoC4/BLE.c **** *  module.
 338:Generated_Source\PSoC4/BLE.c **** * 
 339:Generated_Source\PSoC4/BLE.c **** *  Calling this function results in the generation of CYBLE_EVT_STACK_ON event
 340:Generated_Source\PSoC4/BLE.c **** *  on successful initialization of the BLE Stack.
 341:Generated_Source\PSoC4/BLE.c **** * 
 342:Generated_Source\PSoC4/BLE.c **** *  \param callbackFunc: Event callback function to receive events from BLE stack.
 343:Generated_Source\PSoC4/BLE.c **** *   CYBLE_CALLBACK_T is a function pointer type.
 344:Generated_Source\PSoC4/BLE.c **** * 
 345:Generated_Source\PSoC4/BLE.c **** * \return
 346:Generated_Source\PSoC4/BLE.c **** *  CYBLE_API_RESULT_T : Return value indicates if the function succeeded or 
 347:Generated_Source\PSoC4/BLE.c **** *  failed. Following are the possible error codes.
 348:Generated_Source\PSoC4/BLE.c **** * 
 349:Generated_Source\PSoC4/BLE.c **** *   <table>
 350:Generated_Source\PSoC4/BLE.c **** *  	  <tr>
 351:Generated_Source\PSoC4/BLE.c **** *       <th>Error codes</th>
 352:Generated_Source\PSoC4/BLE.c **** *       <th>Description</th>
 353:Generated_Source\PSoC4/BLE.c **** *     </tr>
 354:Generated_Source\PSoC4/BLE.c **** *     <tr>
 355:Generated_Source\PSoC4/BLE.c **** *       <td>CYBLE_ERROR_OK</td>
 356:Generated_Source\PSoC4/BLE.c **** *       <td>On successful operation.</td>
 357:Generated_Source\PSoC4/BLE.c **** *     </tr>
 358:Generated_Source\PSoC4/BLE.c **** *     <tr>
 359:Generated_Source\PSoC4/BLE.c **** *       <td>CYBLE_ERROR_INVALID_PARAMETER</td>
 360:Generated_Source\PSoC4/BLE.c **** *       <td>On passing a NULL pointer to the function when the BLE stack is not built in HCI mode. 
 361:Generated_Source\PSoC4/BLE.c **** *			CYBLE_ERROR_INVALID_PARAMETER is never returned in HCI mode.</td>
 362:Generated_Source\PSoC4/BLE.c **** *     </tr>
 363:Generated_Source\PSoC4/BLE.c **** *     <tr>
 364:Generated_Source\PSoC4/BLE.c **** *       <td>CYBLE_ERROR_REPEATED_ATTEMPTS</td>
 365:Generated_Source\PSoC4/BLE.c **** *       <td>On invoking this function more than once without calling CyBle_Shutdown() 
 366:Generated_Source\PSoC4/BLE.c **** *           function between calls to this function.</td>
 367:Generated_Source\PSoC4/BLE.c **** *     </tr>
 368:Generated_Source\PSoC4/BLE.c **** *     <tr>
 369:Generated_Source\PSoC4/BLE.c **** *       <td>CYBLE_ERROR_MEMORY_ALLOCATION_FAILED</td>
 370:Generated_Source\PSoC4/BLE.c **** *       <td>There is insufficient memory available.</td>
 371:Generated_Source\PSoC4/BLE.c **** *     </tr>
 372:Generated_Source\PSoC4/BLE.c **** *   </table>
 373:Generated_Source\PSoC4/BLE.c **** * 
 374:Generated_Source\PSoC4/BLE.c **** *  \globalvars
 375:Generated_Source\PSoC4/BLE.c **** *   The CyBle_initVar variable is used to indicate initial
ARM GAS  C:\Users\Harsha\AppData\Local\Temp\ccBsn30u.s 			page 8


 376:Generated_Source\PSoC4/BLE.c **** *   configuration of this component. The variable is initialized to zero (0u)
 377:Generated_Source\PSoC4/BLE.c **** *   and set to one (1u) the first time CyBle_Start() is called. This
 378:Generated_Source\PSoC4/BLE.c **** *   allows for component initialization without re-initialization in all
 379:Generated_Source\PSoC4/BLE.c **** *   subsequent calls to the CyBle_Start() routine.
 380:Generated_Source\PSoC4/BLE.c **** * 
 381:Generated_Source\PSoC4/BLE.c **** ******************************************************************************/
 382:Generated_Source\PSoC4/BLE.c **** CYBLE_API_RESULT_T CyBle_Start(CYBLE_CALLBACK_T callbackFunc)
 383:Generated_Source\PSoC4/BLE.c **** {
 384:Generated_Source\PSoC4/BLE.c ****     CYBLE_API_RESULT_T apiResult = CYBLE_ERROR_OK;
 385:Generated_Source\PSoC4/BLE.c ****     
 386:Generated_Source\PSoC4/BLE.c ****     #if(CYBLE_MODE_PROFILE)
 387:Generated_Source\PSoC4/BLE.c ****     
 388:Generated_Source\PSoC4/BLE.c ****     CYBLE_STK_APP_DATA_BUFF_T cyBle_stackDataBuff[CYBLE_STACK_BUF_COUNT] = 
 389:Generated_Source\PSoC4/BLE.c ****     {
 390:Generated_Source\PSoC4/BLE.c ****         {CYBLE_GATT_MTU_PLUS_L2CAP_MEM_EXT, CYBLE_GATT_MTU_BUF_COUNT},
 391:Generated_Source\PSoC4/BLE.c ****         {CYBLE_GATT_MAX_ATTR_LEN_PLUS_L2CAP_MEM_EXT, 1u},
 392:Generated_Source\PSoC4/BLE.c ****         {CYBLE_L2CAP_PSM_PLUS_L2CAP_MEM_EXT, CYBLE_L2CAP_PSM_COUNT},
 393:Generated_Source\PSoC4/BLE.c ****         {CYBLE_L2CAP_CBFC_PLUS_L2CAP_MEM_EXT, CYBLE_L2CAP_LOGICAL_CHANNEL_COUNT},
 394:Generated_Source\PSoC4/BLE.c ****         {CYBLE_L2CAP_MTU_PLUS_L2CAP_MEM_EXT, CYBLE_L2CAP_LOGICAL_CHANNEL_COUNT},
 395:Generated_Source\PSoC4/BLE.c ****         {CYBLE_L2CAP_MPS_PLUS_L2CAP_MEM_EXT, CYBLE_L2CAP_LOGICAL_CHANNEL_COUNT * (CYBLE_L2CAP_MTU/C
 396:Generated_Source\PSoC4/BLE.c ****     }; 
 397:Generated_Source\PSoC4/BLE.c **** 
 398:Generated_Source\PSoC4/BLE.c ****     #endif /* CYBLE_MODE_PROFILE */
 399:Generated_Source\PSoC4/BLE.c ****     
 400:Generated_Source\PSoC4/BLE.c ****     /* If not initialized then initialize all the required hardware and software */
 401:Generated_Source\PSoC4/BLE.c ****     if(cyBle_initVar == 0u)
 402:Generated_Source\PSoC4/BLE.c ****     {
 403:Generated_Source\PSoC4/BLE.c ****         CyBle_Init();
 404:Generated_Source\PSoC4/BLE.c ****         cyBle_initVar = 1u;
 405:Generated_Source\PSoC4/BLE.c ****     }
 406:Generated_Source\PSoC4/BLE.c ****     
 407:Generated_Source\PSoC4/BLE.c ****     if(callbackFunc != NULL)
 408:Generated_Source\PSoC4/BLE.c ****     {
 409:Generated_Source\PSoC4/BLE.c ****     #if(CYBLE_SHARING_MODE_EXPORT)
 410:Generated_Source\PSoC4/BLE.c ****         if(cyBle_stackMemoryRam == NULL)
 411:Generated_Source\PSoC4/BLE.c ****         {
 412:Generated_Source\PSoC4/BLE.c ****             cyBle_stackMemoryRam = (uint8 *)malloc(CYBLE_STACK_RAM_SIZE);
 413:Generated_Source\PSoC4/BLE.c ****             if(cyBle_stackMemoryRam == NULL)
 414:Generated_Source\PSoC4/BLE.c ****             {
 415:Generated_Source\PSoC4/BLE.c ****                 apiResult = CYBLE_ERROR_MEMORY_ALLOCATION_FAILED;
 416:Generated_Source\PSoC4/BLE.c ****             } 
 417:Generated_Source\PSoC4/BLE.c ****         }
 418:Generated_Source\PSoC4/BLE.c ****     #endif /* CYBLE_SHARING_MODE_EXPORT */
 419:Generated_Source\PSoC4/BLE.c ****         if(apiResult == CYBLE_ERROR_OK)
 420:Generated_Source\PSoC4/BLE.c ****         {
 421:Generated_Source\PSoC4/BLE.c ****         #if(CYBLE_MODE_PROFILE)
 422:Generated_Source\PSoC4/BLE.c ****             apiResult = CyBle_StackInit(&CyBle_EventHandler, cyBle_stackMemoryRam, CYBLE_STACK_RAM_
 423:Generated_Source\PSoC4/BLE.c ****                 cyBle_stackDataBuff, CYBLE_STACK_BUF_COUNT, cyBle_flashStorage.stackFlashptr, CYBLE
 424:Generated_Source\PSoC4/BLE.c ****         #else
 425:Generated_Source\PSoC4/BLE.c ****             apiResult = CyBle_StackInit(&CyBle_EventHandler, cyBle_stackMemoryRam, CYBLE_STACK_RAM_
 426:Generated_Source\PSoC4/BLE.c ****                 NULL, 0u, NULL, 0u);
 427:Generated_Source\PSoC4/BLE.c ****         #endif /* CYBLE_MODE_PROFILE */
 428:Generated_Source\PSoC4/BLE.c **** 
 429:Generated_Source\PSoC4/BLE.c ****             CyBle_ApplCallback = callbackFunc;
 430:Generated_Source\PSoC4/BLE.c ****             
 431:Generated_Source\PSoC4/BLE.c **** 
 432:Generated_Source\PSoC4/BLE.c ****             if(apiResult == CYBLE_ERROR_OK)
ARM GAS  C:\Users\Harsha\AppData\Local\Temp\ccBsn30u.s 			page 9


 433:Generated_Source\PSoC4/BLE.c ****             {
 434:Generated_Source\PSoC4/BLE.c ****                 CyBle_SetState(CYBLE_STATE_INITIALIZING);
 435:Generated_Source\PSoC4/BLE.c ****                 
 436:Generated_Source\PSoC4/BLE.c ****             #if (CYBLE_GATT_ROLE_CLIENT)
 437:Generated_Source\PSoC4/BLE.c ****                 CyBle_SetClientState(CYBLE_CLIENT_STATE_DISCONNECTED);
 438:Generated_Source\PSoC4/BLE.c ****             #endif /* CYBLE_GATT_ROLE_CLIENT */
 439:Generated_Source\PSoC4/BLE.c ****                 
 440:Generated_Source\PSoC4/BLE.c ****             #if(CYBLE_GATT_ROLE_SERVER)
 441:Generated_Source\PSoC4/BLE.c ****                 apiResult = CyBle_GattsDbRegister(cyBle_gattDB, CYBLE_GATT_DB_INDEX_COUNT, CYBLE_GA
 442:Generated_Source\PSoC4/BLE.c ****             #endif /* CYBLE_GATT_ROLE_SERVER */
 443:Generated_Source\PSoC4/BLE.c ****             }
 444:Generated_Source\PSoC4/BLE.c ****         }
 445:Generated_Source\PSoC4/BLE.c ****     }
 446:Generated_Source\PSoC4/BLE.c ****     else
 447:Generated_Source\PSoC4/BLE.c ****     {
 448:Generated_Source\PSoC4/BLE.c ****         apiResult = CYBLE_ERROR_INVALID_PARAMETER;
 449:Generated_Source\PSoC4/BLE.c ****     }
 450:Generated_Source\PSoC4/BLE.c **** 
 451:Generated_Source\PSoC4/BLE.c ****     return (apiResult);
 452:Generated_Source\PSoC4/BLE.c **** }
 453:Generated_Source\PSoC4/BLE.c **** 
 454:Generated_Source\PSoC4/BLE.c **** 
 455:Generated_Source\PSoC4/BLE.c **** /******************************************************************************
 456:Generated_Source\PSoC4/BLE.c **** * Function Name: CyBle_Stop
 457:Generated_Source\PSoC4/BLE.c **** ***************************************************************************//**
 458:Generated_Source\PSoC4/BLE.c **** * 
 459:Generated_Source\PSoC4/BLE.c **** *  This function stops any ongoing operation in the BLE Stack and forces the 
 460:Generated_Source\PSoC4/BLE.c **** *  BLE Stack to shut down. The only function that can be called after calling
 461:Generated_Source\PSoC4/BLE.c **** *  this function is CyBle_Start(). 
 462:Generated_Source\PSoC4/BLE.c **** * 
 463:Generated_Source\PSoC4/BLE.c **** * \return
 464:Generated_Source\PSoC4/BLE.c **** *  None
 465:Generated_Source\PSoC4/BLE.c **** * 
 466:Generated_Source\PSoC4/BLE.c **** ******************************************************************************/
 467:Generated_Source\PSoC4/BLE.c **** void CyBle_Stop(void)
 468:Generated_Source\PSoC4/BLE.c **** {
 469:Generated_Source\PSoC4/BLE.c ****     CyBle_Shutdown();                         /* Stop all ongoing activities */
 470:Generated_Source\PSoC4/BLE.c ****     CyBle_SetState(CYBLE_STATE_STOPPED);
 471:Generated_Source\PSoC4/BLE.c ****     #if(CYBLE_SHARING_MODE_EXPORT)
 472:Generated_Source\PSoC4/BLE.c ****         if(cyBle_stackMemoryRam != NULL)
 473:Generated_Source\PSoC4/BLE.c ****         {
 474:Generated_Source\PSoC4/BLE.c ****             free(cyBle_stackMemoryRam);
 475:Generated_Source\PSoC4/BLE.c ****         }
 476:Generated_Source\PSoC4/BLE.c ****     #endif /* CYBLE_SHARING_MODE_EXPORT */
 477:Generated_Source\PSoC4/BLE.c **** }
 478:Generated_Source\PSoC4/BLE.c **** 
 479:Generated_Source\PSoC4/BLE.c **** 
 480:Generated_Source\PSoC4/BLE.c **** #if((CYBLE_GAP_ROLE_PERIPHERAL || CYBLE_GAP_ROLE_CENTRAL) && (CYBLE_BONDING_REQUIREMENT == CYBLE_BO
 481:Generated_Source\PSoC4/BLE.c **** 
 482:Generated_Source\PSoC4/BLE.c ****     
 483:Generated_Source\PSoC4/BLE.c **** /******************************************************************************
 484:Generated_Source\PSoC4/BLE.c **** * Function Name: CyBle_StoreBondingData
 485:Generated_Source\PSoC4/BLE.c **** ***************************************************************************//**
 486:Generated_Source\PSoC4/BLE.c **** * 
 487:Generated_Source\PSoC4/BLE.c **** *  This function writes the new bonding data from RAM to the dedicated Flash 
 488:Generated_Source\PSoC4/BLE.c **** *  location as defined by the component. It performs data comparing between RAM
 489:Generated_Source\PSoC4/BLE.c **** *  and Flash before writing to Flash. If there is no change between RAM and Flash
ARM GAS  C:\Users\Harsha\AppData\Local\Temp\ccBsn30u.s 			page 10


 490:Generated_Source\PSoC4/BLE.c **** *  data, then no write is performed. It writes only one flash row in one call.
 491:Generated_Source\PSoC4/BLE.c **** *  Application should keep calling this function till API return CYBLE_ERROR_OK. 
 492:Generated_Source\PSoC4/BLE.c **** *  This function is available only when Bonding requirement is selected in
 493:Generated_Source\PSoC4/BLE.c **** *  Security settings.    
 494:Generated_Source\PSoC4/BLE.c **** * 
 495:Generated_Source\PSoC4/BLE.c **** *  \param isForceWrite:  If value is set to 0, then stack will check if flash write 
 496:Generated_Source\PSoC4/BLE.c **** *                 is permissible. 
 497:Generated_Source\PSoC4/BLE.c **** *  
 498:Generated_Source\PSoC4/BLE.c **** * \return
 499:Generated_Source\PSoC4/BLE.c **** *  Return value is of type CYBLE_API_RESULT_T.
 500:Generated_Source\PSoC4/BLE.c **** *
 501:Generated_Source\PSoC4/BLE.c **** *   Errors codes                         | Description
 502:Generated_Source\PSoC4/BLE.c **** *   ----------------------------------   | ------------------------------------
 503:Generated_Source\PSoC4/BLE.c **** *   CYBLE_ERROR_OK                       | On successful operation
 504:Generated_Source\PSoC4/BLE.c **** *   CYBLE_ERROR_FLASH_WRITE_NOT_PERMITED | Flash Write is not complete
 505:Generated_Source\PSoC4/BLE.c **** *    
 506:Generated_Source\PSoC4/BLE.c **** *  \sideeffect
 507:Generated_Source\PSoC4/BLE.c **** *   For BLE devices with 128K of Flash memory this API will automatically 
 508:Generated_Source\PSoC4/BLE.c **** *   modify the clock settings for the device.
 509:Generated_Source\PSoC4/BLE.c **** *   Writing to flash requires changes to be done to the IMO (set to 48 MHz)
 510:Generated_Source\PSoC4/BLE.c **** *   and HFCLK (source set to IMO) settings. The configuration is restored before
 511:Generated_Source\PSoC4/BLE.c **** *   returning. This will impact the operation of most of the hardware in the
 512:Generated_Source\PSoC4/BLE.c **** *   device.
 513:Generated_Source\PSoC4/BLE.c **** * 
 514:Generated_Source\PSoC4/BLE.c **** *  \globalvars
 515:Generated_Source\PSoC4/BLE.c **** *   The BLE_pendingFlashWrite variable is used to detect status
 516:Generated_Source\PSoC4/BLE.c **** *   of pending write to flash operation for stack data and CCCD.
 517:Generated_Source\PSoC4/BLE.c **** *   This API automatically clears pending bits after write operation complete.
 518:Generated_Source\PSoC4/BLE.c **** *     
 519:Generated_Source\PSoC4/BLE.c **** ******************************************************************************/
 520:Generated_Source\PSoC4/BLE.c **** CYBLE_API_RESULT_T CyBle_StoreBondingData(uint8 isForceWrite)
 521:Generated_Source\PSoC4/BLE.c **** {
 522:Generated_Source\PSoC4/BLE.c ****     CYBLE_API_RESULT_T apiResult = CYBLE_ERROR_OK;
 523:Generated_Source\PSoC4/BLE.c ****     
 524:Generated_Source\PSoC4/BLE.c ****     /* Store Stack data */
 525:Generated_Source\PSoC4/BLE.c ****     if((cyBle_pendingFlashWrite & CYBLE_PENDING_STACK_FLASH_WRITE_BIT) != 0u)
 526:Generated_Source\PSoC4/BLE.c ****     {
 527:Generated_Source\PSoC4/BLE.c ****         apiResult = CyBle_StoreStackData(isForceWrite);
 528:Generated_Source\PSoC4/BLE.c ****         if(apiResult == CYBLE_ERROR_OK)
 529:Generated_Source\PSoC4/BLE.c ****         {
 530:Generated_Source\PSoC4/BLE.c ****             cyBle_pendingFlashWrite &= (uint8)~CYBLE_PENDING_STACK_FLASH_WRITE_BIT;
 531:Generated_Source\PSoC4/BLE.c ****             /* Change apiResult if there are more pending data to store */
 532:Generated_Source\PSoC4/BLE.c ****             if((cyBle_pendingFlashWrite & CYBLE_PENDING_CCCD_FLASH_WRITE_BIT) != 0u)
 533:Generated_Source\PSoC4/BLE.c ****             {
 534:Generated_Source\PSoC4/BLE.c ****                 apiResult = CYBLE_ERROR_FLASH_WRITE_NOT_PERMITED;
 535:Generated_Source\PSoC4/BLE.c ****             }
 536:Generated_Source\PSoC4/BLE.c ****         }
 537:Generated_Source\PSoC4/BLE.c ****     }
 538:Generated_Source\PSoC4/BLE.c **** #if(CYBLE_GATT_DB_CCCD_COUNT != 0u)
 539:Generated_Source\PSoC4/BLE.c ****     /* Store CCCD values */
 540:Generated_Source\PSoC4/BLE.c ****     if( ((apiResult == CYBLE_ERROR_OK) || (isForceWrite != 0u)) && 
 541:Generated_Source\PSoC4/BLE.c ****         ((cyBle_pendingFlashWrite & CYBLE_PENDING_CCCD_FLASH_WRITE_BIT) != 0u) &&
 542:Generated_Source\PSoC4/BLE.c ****         (cyBle_connHandle.bdHandle <= CYBLE_GAP_MAX_BONDED_DEVICE))
 543:Generated_Source\PSoC4/BLE.c ****     {
 544:Generated_Source\PSoC4/BLE.c ****         apiResult = CyBle_StoreAppData(cyBle_attValuesCCCD, cyBle_flashStorage.attValuesCCCDFlashMe
 545:Generated_Source\PSoC4/BLE.c ****                                        CYBLE_GATT_DB_CCCD_COUNT, isForceWrite);
 546:Generated_Source\PSoC4/BLE.c ****         if(apiResult == CYBLE_ERROR_OK)
ARM GAS  C:\Users\Harsha\AppData\Local\Temp\ccBsn30u.s 			page 11


 547:Generated_Source\PSoC4/BLE.c ****         {
 548:Generated_Source\PSoC4/BLE.c ****             cyBle_pendingFlashWrite &= (uint8)~CYBLE_PENDING_CCCD_FLASH_WRITE_BIT;
 549:Generated_Source\PSoC4/BLE.c ****         }
 550:Generated_Source\PSoC4/BLE.c ****     }
 551:Generated_Source\PSoC4/BLE.c **** #endif /* CYBLE_GATT_DB_CCCD_COUNT != 0u */
 552:Generated_Source\PSoC4/BLE.c ****     return(apiResult);
 553:Generated_Source\PSoC4/BLE.c **** }
 554:Generated_Source\PSoC4/BLE.c **** 
 555:Generated_Source\PSoC4/BLE.c **** 
 556:Generated_Source\PSoC4/BLE.c **** #endif /* (CYBLE_GAP_ROLE_PERIPHERAL || CYBLE_GAP_ROLE_CENTRAL) && (CYBLE_BONDING_REQUIREMENT == CY
 557:Generated_Source\PSoC4/BLE.c **** 
 558:Generated_Source\PSoC4/BLE.c **** 
 559:Generated_Source\PSoC4/BLE.c **** #if(CYBLE_GAP_ROLE_PERIPHERAL || CYBLE_GAP_ROLE_BROADCASTER)
 560:Generated_Source\PSoC4/BLE.c **** 
 561:Generated_Source\PSoC4/BLE.c ****     /******************************************************************************
 562:Generated_Source\PSoC4/BLE.c ****     *  Function Name: CyBle_GappStartAdvertisement
 563:Generated_Source\PSoC4/BLE.c ****     ***************************************************************************//**
 564:Generated_Source\PSoC4/BLE.c ****     *     
 565:Generated_Source\PSoC4/BLE.c ****     *  This function is used to start the advertisement using the advertisement data 
 566:Generated_Source\PSoC4/BLE.c ****     *  set in the component customizer's GUI. After invoking this API, the device 
 567:Generated_Source\PSoC4/BLE.c ****     *  will be available for connection by the devices configured for GAP central 
 568:Generated_Source\PSoC4/BLE.c ****     *  role. It is only included if the device is configured for GAP Peripheral or 
 569:Generated_Source\PSoC4/BLE.c ****     *  GAP Peripheral + Central role.
 570:Generated_Source\PSoC4/BLE.c ****     *  
 571:Generated_Source\PSoC4/BLE.c ****     *  On start of advertisement, GAP Peripheral receives the
 572:Generated_Source\PSoC4/BLE.c ****     *  CYBLE_EVT_GAPP_ADVERTISEMENT_START_STOP event. The following events are 
 573:Generated_Source\PSoC4/BLE.c ****     *  possible on invoking this function:
 574:Generated_Source\PSoC4/BLE.c ****     *  
 575:Generated_Source\PSoC4/BLE.c ****     *  * CYBLE_EVT_GAP_DEVICE_CONNECTED: If the device connects to remote GAP 
 576:Generated_Source\PSoC4/BLE.c ****     *                                      Central device
 577:Generated_Source\PSoC4/BLE.c ****     *  * CYBLE_EVT_TIMEOUT: If no device in GAP Central mode connects to this 
 578:Generated_Source\PSoC4/BLE.c ****     *                       device within the specified timeout limit. Stack 
 579:Generated_Source\PSoC4/BLE.c ****     *                       automatically initiate stop advertising when Slow 
 580:Generated_Source\PSoC4/BLE.c ****     *                       advertising was initiated, or starts Slow advertising
 581:Generated_Source\PSoC4/BLE.c ****     *                       after Fast advertising timeout occur.
 582:Generated_Source\PSoC4/BLE.c ****     *  * CYBLE_EVT_GAPP_ADVERTISEMENT_START_STOP: If device started or stopped
 583:Generated_Source\PSoC4/BLE.c ****     *                                               advertising. Use CyBle_GetState()
 584:Generated_Source\PSoC4/BLE.c ****     *                                               to determine the state. Sequential 
 585:Generated_Source\PSoC4/BLE.c ****     *                                               advertising could be started when
 586:Generated_Source\PSoC4/BLE.c ****     *                                               CYBLE_STATE_DISCONNECTED state is
 587:Generated_Source\PSoC4/BLE.c ****     *                                               returned.
 588:Generated_Source\PSoC4/BLE.c ****     * 
 589:Generated_Source\PSoC4/BLE.c ****     *  \param uint8 advertisingIntervalType: Fast or slow advertising interval with timings
 590:Generated_Source\PSoC4/BLE.c ****     *                                 entered in Advertising settings section of the
 591:Generated_Source\PSoC4/BLE.c ****     *                                 customizer.
 592:Generated_Source\PSoC4/BLE.c ****     *  * CYBLE_ADVERTISING_FAST   0x00u
 593:Generated_Source\PSoC4/BLE.c ****     *  * CYBLE_ADVERTISING_SLOW   0x01u
 594:Generated_Source\PSoC4/BLE.c ****     *  * CYBLE_ADVERTISING_CUSTOM 0x02u
 595:Generated_Source\PSoC4/BLE.c ****     * 
 596:Generated_Source\PSoC4/BLE.c ****     * \return
 597:Generated_Source\PSoC4/BLE.c ****     *  CYBLE_API_RESULT_T : Return value indicates if the function succeeded or
 598:Generated_Source\PSoC4/BLE.c ****     *  failed. Following are the possible error codes.
 599:Generated_Source\PSoC4/BLE.c ****     * 
 600:Generated_Source\PSoC4/BLE.c ****     *   Errors codes                      |  Description
 601:Generated_Source\PSoC4/BLE.c ****     *   --------------------------------- |  --------------------------------
 602:Generated_Source\PSoC4/BLE.c ****     *   CYBLE_ERROR_OK                    |  On successful operation.
 603:Generated_Source\PSoC4/BLE.c ****     *   CYBLE_ERROR_INVALID_PARAMETER     |  On passing an invalid parameter.
ARM GAS  C:\Users\Harsha\AppData\Local\Temp\ccBsn30u.s 			page 12


 604:Generated_Source\PSoC4/BLE.c ****     *   CYBLE_ERROR_INVALID_STATE         |  On calling this API not in Disconnected state.
 605:Generated_Source\PSoC4/BLE.c ****     *
 606:Generated_Source\PSoC4/BLE.c ****     * 
 607:Generated_Source\PSoC4/BLE.c ****     *******************************************************************************/
 608:Generated_Source\PSoC4/BLE.c ****     CYBLE_API_RESULT_T CyBle_GappStartAdvertisement(uint8 advertisingIntervalType)
 609:Generated_Source\PSoC4/BLE.c ****     {
 610:Generated_Source\PSoC4/BLE.c ****         CYBLE_API_RESULT_T apiResult;
 611:Generated_Source\PSoC4/BLE.c ****         
 612:Generated_Source\PSoC4/BLE.c ****         if(advertisingIntervalType > CYBLE_ADVERTISING_CUSTOM)
 613:Generated_Source\PSoC4/BLE.c ****         {
 614:Generated_Source\PSoC4/BLE.c ****             apiResult = CYBLE_ERROR_INVALID_PARAMETER;
 615:Generated_Source\PSoC4/BLE.c ****         }
 616:Generated_Source\PSoC4/BLE.c ****         else if((CYBLE_STATE_DISCONNECTED == CyBle_GetState()) && ((cyBle_eventHandlerFlag & CYBLE_
 617:Generated_Source\PSoC4/BLE.c ****         {   
 618:Generated_Source\PSoC4/BLE.c ****             if(advertisingIntervalType == CYBLE_ADVERTISING_FAST)
 619:Generated_Source\PSoC4/BLE.c ****             {
 620:Generated_Source\PSoC4/BLE.c ****                 cyBle_discoveryModeInfo.advTo = CYBLE_FAST_ADV_TIMEOUT;
 621:Generated_Source\PSoC4/BLE.c ****                 cyBle_discoveryModeInfo.advParam->advIntvMin = CYBLE_FAST_ADV_INT_MIN;
 622:Generated_Source\PSoC4/BLE.c ****                 cyBle_discoveryModeInfo.advParam->advIntvMax = CYBLE_FAST_ADV_INT_MAX;
 623:Generated_Source\PSoC4/BLE.c ****             }
 624:Generated_Source\PSoC4/BLE.c ****             else if(advertisingIntervalType == CYBLE_ADVERTISING_SLOW)
 625:Generated_Source\PSoC4/BLE.c ****             {
 626:Generated_Source\PSoC4/BLE.c ****                 cyBle_discoveryModeInfo.advTo = CYBLE_SLOW_ADV_TIMEOUT;
 627:Generated_Source\PSoC4/BLE.c ****                 cyBle_discoveryModeInfo.advParam->advIntvMin = CYBLE_SLOW_ADV_INT_MIN;
 628:Generated_Source\PSoC4/BLE.c ****                 cyBle_discoveryModeInfo.advParam->advIntvMax = CYBLE_SLOW_ADV_INT_MAX;
 629:Generated_Source\PSoC4/BLE.c ****             }       
 630:Generated_Source\PSoC4/BLE.c ****             else /* Do not update advertising intervals */
 631:Generated_Source\PSoC4/BLE.c ****             {
 632:Generated_Source\PSoC4/BLE.c ****             }
 633:Generated_Source\PSoC4/BLE.c ****             cyBle_advertisingIntervalType = advertisingIntervalType;
 634:Generated_Source\PSoC4/BLE.c ****             apiResult = CyBle_GappEnterDiscoveryMode(&cyBle_discoveryModeInfo);
 635:Generated_Source\PSoC4/BLE.c ****         
 636:Generated_Source\PSoC4/BLE.c ****             if(CYBLE_ERROR_OK == apiResult)
 637:Generated_Source\PSoC4/BLE.c ****             {
 638:Generated_Source\PSoC4/BLE.c ****                 cyBle_eventHandlerFlag |= CYBLE_START_FLAG;
 639:Generated_Source\PSoC4/BLE.c ****             }
 640:Generated_Source\PSoC4/BLE.c ****         }
 641:Generated_Source\PSoC4/BLE.c ****         else
 642:Generated_Source\PSoC4/BLE.c ****         {
 643:Generated_Source\PSoC4/BLE.c ****             apiResult = CYBLE_ERROR_INVALID_STATE;
 644:Generated_Source\PSoC4/BLE.c ****         }
 645:Generated_Source\PSoC4/BLE.c **** 
 646:Generated_Source\PSoC4/BLE.c ****         return (apiResult);
 647:Generated_Source\PSoC4/BLE.c ****     }
 648:Generated_Source\PSoC4/BLE.c **** 
 649:Generated_Source\PSoC4/BLE.c ****     
 650:Generated_Source\PSoC4/BLE.c ****     /******************************************************************************
 651:Generated_Source\PSoC4/BLE.c ****     * Function Name: CyBle_GappStopAdvertisement
 652:Generated_Source\PSoC4/BLE.c ****     * *******************************************************************************
 653:Generated_Source\PSoC4/BLE.c ****     * 
 654:Generated_Source\PSoC4/BLE.c ****     *   This function can be used to exit from discovery mode. After the execution 
 655:Generated_Source\PSoC4/BLE.c ****     *   of this function, there will no longer be any advertisements. On stopping 
 656:Generated_Source\PSoC4/BLE.c ****     *   advertising, GAP Peripheral receives CYBLE_EVT_GAPP_ADVERTISEMENT_START_STOP
 657:Generated_Source\PSoC4/BLE.c ****     *   event. It is expected that the application layer tracks the function call 
 658:Generated_Source\PSoC4/BLE.c ****     *   performed before occurrence of this event as this event can occur on making 
 659:Generated_Source\PSoC4/BLE.c ****     *   a call to Cy_BleGappStartAdvertisement(), CyBle_GappEnterDiscoveryMode(), 
 660:Generated_Source\PSoC4/BLE.c ****     *   or CyBle_GappStartAdvertisement() functions as well.
ARM GAS  C:\Users\Harsha\AppData\Local\Temp\ccBsn30u.s 			page 13


 661:Generated_Source\PSoC4/BLE.c ****     *   
 662:Generated_Source\PSoC4/BLE.c ****     *   The following event occurs on invoking this function:
 663:Generated_Source\PSoC4/BLE.c ****     *   * CYBLE_EVT_GAPP_ADVERTISEMENT_START_STOP
 664:Generated_Source\PSoC4/BLE.c ****     * 
 665:Generated_Source\PSoC4/BLE.c ****     *  \return
 666:Generated_Source\PSoC4/BLE.c ****     *   None
 667:Generated_Source\PSoC4/BLE.c ****     * 
 668:Generated_Source\PSoC4/BLE.c ****     *******************************************************************************/
 669:Generated_Source\PSoC4/BLE.c ****     void CyBle_GappStopAdvertisement(void)
 670:Generated_Source\PSoC4/BLE.c ****     {
 671:Generated_Source\PSoC4/BLE.c ****         CyBle_GappExitDiscoveryMode();
 672:Generated_Source\PSoC4/BLE.c ****         cyBle_eventHandlerFlag |= CYBLE_STOP_FLAG;
 673:Generated_Source\PSoC4/BLE.c ****     }
 674:Generated_Source\PSoC4/BLE.c ****     
 675:Generated_Source\PSoC4/BLE.c ****     
 676:Generated_Source\PSoC4/BLE.c ****     /******************************************************************************
 677:Generated_Source\PSoC4/BLE.c ****     * Function Name: CyBle_ChangeAdDeviceAddress
 678:Generated_Source\PSoC4/BLE.c ****     * *******************************************************************************
 679:Generated_Source\PSoC4/BLE.c **** * 
 680:Generated_Source\PSoC4/BLE.c ****     *  This API is used to set the Bluetooth device address into the advertisement 
 681:Generated_Source\PSoC4/BLE.c ****     *  or scan response data structure.
 682:Generated_Source\PSoC4/BLE.c **** * 
 683:Generated_Source\PSoC4/BLE.c ****     *  \param bdAddr: Bluetooth Device address. The variable is of type CYBLE_GAP_BD_ADDR_T
 684:Generated_Source\PSoC4/BLE.c ****     *  \param uint8 dest: 0 - selects advertisement structure, not zero value selects scan 
 685:Generated_Source\PSoC4/BLE.c ****     *              response structure.
 686:Generated_Source\PSoC4/BLE.c **** * 
 687:Generated_Source\PSoC4/BLE.c ****     * \return
 688:Generated_Source\PSoC4/BLE.c ****     *  None
 689:Generated_Source\PSoC4/BLE.c **** *  
 690:Generated_Source\PSoC4/BLE.c ****     * ******************************************************************************/
 691:Generated_Source\PSoC4/BLE.c ****     void CyBle_ChangeAdDeviceAddress(const CYBLE_GAP_BD_ADDR_T* bdAddr, uint8 dest)
 692:Generated_Source\PSoC4/BLE.c ****     {
 693:Generated_Source\PSoC4/BLE.c ****         uint8 i;
 694:Generated_Source\PSoC4/BLE.c ****         uint8 *destBuffer = NULL;
 695:Generated_Source\PSoC4/BLE.c ****         
 696:Generated_Source\PSoC4/BLE.c ****         if(dest == 0u)      /* Destination - advertising structure */
 697:Generated_Source\PSoC4/BLE.c ****         {
 698:Generated_Source\PSoC4/BLE.c ****             #ifdef CYBLE_ADV_PKT_INDEX_BLUETOOTH_DEVICE_ADDRESS
 699:Generated_Source\PSoC4/BLE.c ****                 destBuffer = &cyBle_discoveryData.advData[CYBLE_ADV_PKT_INDEX_BLUETOOTH_DEVICE_ADDR
 700:Generated_Source\PSoC4/BLE.c ****             #endif /* CYBLE_ADV_PKT_INDEX_BLUETOOTH_DEVICE_ADDRESS */
 701:Generated_Source\PSoC4/BLE.c ****         }
 702:Generated_Source\PSoC4/BLE.c ****         else                /* Destination - scan response structure */
 703:Generated_Source\PSoC4/BLE.c ****         {
 704:Generated_Source\PSoC4/BLE.c ****             #ifdef CYBLE_SCN_PKT_INDEX_BLUETOOTH_DEVICE_ADDRESS
 705:Generated_Source\PSoC4/BLE.c ****                 destBuffer = &cyBle_scanRspData.scanRspData[CYBLE_SCN_PKT_INDEX_BLUETOOTH_DEVICE_AD
 706:Generated_Source\PSoC4/BLE.c ****             #endif /* CYBLE_SCN_PKT_INDEX_BLUETOOTH_DEVICE_ADDRESS */    
 707:Generated_Source\PSoC4/BLE.c ****         }
 708:Generated_Source\PSoC4/BLE.c ****         
 709:Generated_Source\PSoC4/BLE.c ****         if(destBuffer != NULL)
 710:Generated_Source\PSoC4/BLE.c ****         {
 711:Generated_Source\PSoC4/BLE.c ****             /* Update Device Address type */
 712:Generated_Source\PSoC4/BLE.c ****             destBuffer[0u] = bdAddr->type;
 713:Generated_Source\PSoC4/BLE.c ****             
 714:Generated_Source\PSoC4/BLE.c ****             for(i = 0u; i < CYBLE_GAP_BD_ADDR_SIZE; i++)
 715:Generated_Source\PSoC4/BLE.c ****             {
 716:Generated_Source\PSoC4/BLE.c ****                 destBuffer[i + 1u] = bdAddr->bdAddr[i];
 717:Generated_Source\PSoC4/BLE.c ****             }
ARM GAS  C:\Users\Harsha\AppData\Local\Temp\ccBsn30u.s 			page 14


 718:Generated_Source\PSoC4/BLE.c ****         }
 719:Generated_Source\PSoC4/BLE.c ****     }
 720:Generated_Source\PSoC4/BLE.c ****   
 721:Generated_Source\PSoC4/BLE.c **** #endif /* CYBLE_GAP_ROLE_PERIPHERAL || CYBLE_GAP_ROLE_BROADCASTER */
 722:Generated_Source\PSoC4/BLE.c **** 
 723:Generated_Source\PSoC4/BLE.c **** 
 724:Generated_Source\PSoC4/BLE.c **** #if(CYBLE_GAP_ROLE_CENTRAL || CYBLE_GAP_ROLE_OBSERVER)
 725:Generated_Source\PSoC4/BLE.c **** 
 726:Generated_Source\PSoC4/BLE.c ****     /******************************************************************************
 727:Generated_Source\PSoC4/BLE.c ****     * Function Name: CyBle_GapcStartScan
 728:Generated_Source\PSoC4/BLE.c ****     ***************************************************************************//**
 729:Generated_Source\PSoC4/BLE.c ****     * 
 730:Generated_Source\PSoC4/BLE.c ****     *   This function is used for discovering GAP peripheral devices that are 
 731:Generated_Source\PSoC4/BLE.c ****     *   available for connection. It performs the scanning routine using the 
 732:Generated_Source\PSoC4/BLE.c ****     *   parameters entered in the component's customizer.
 733:Generated_Source\PSoC4/BLE.c ****     *   
 734:Generated_Source\PSoC4/BLE.c ****     *   As soon as the discovery operation starts, CYBLE_EVT_GAPC_SCAN_START_STOP 
 735:Generated_Source\PSoC4/BLE.c ****     *   event is generated. The CYBLE_EVT_GAPC_SCAN_PROGRESS_RESULT event is 
 736:Generated_Source\PSoC4/BLE.c ****     *   generated when a GAP peripheral device is located. There are three discovery
 737:Generated_Source\PSoC4/BLE.c ****     *   procedures can be selected in the customizer's GUI:
 738:Generated_Source\PSoC4/BLE.c ****     *   
 739:Generated_Source\PSoC4/BLE.c ****     *   * Observation procedure: A device performing the observer role receives only
 740:Generated_Source\PSoC4/BLE.c ****     *                            advertisement data from devices irrespective of 
 741:Generated_Source\PSoC4/BLE.c ****     *                            their discoverable mode settings. Advertisement 
 742:Generated_Source\PSoC4/BLE.c ****     *                            data received is provided by the event,      
 743:Generated_Source\PSoC4/BLE.c ****     *                            CYBLE_EVT_GAPC_SCAN_PROGRESS_RESULT. This procedure
 744:Generated_Source\PSoC4/BLE.c ****     *                            requires the scanType sub parameter to be passive
 745:Generated_Source\PSoC4/BLE.c ****     *                            scanning. 
 746:Generated_Source\PSoC4/BLE.c ****     *   
 747:Generated_Source\PSoC4/BLE.c ****     *   * Limited Discovery procedure: A device performing the limited discovery
 748:Generated_Source\PSoC4/BLE.c ****     *                                  procedure receives advertisement data and 
 749:Generated_Source\PSoC4/BLE.c ****     *                                  scan# response data from devices in the 
 750:Generated_Source\PSoC4/BLE.c ****     *                                  limited discoverable mode only. Received data
 751:Generated_Source\PSoC4/BLE.c ****     *                                  is provided by the event, 
 752:Generated_Source\PSoC4/BLE.c ****     *                                  CYBLE_EVT_GAPC_SCAN_PROGRESS_RESULT. This 
 753:Generated_Source\PSoC4/BLE.c ****     *                                  procedure requires the scanType sub-parameter 
 754:Generated_Source\PSoC4/BLE.c ****     *                                  to be active scanning.
 755:Generated_Source\PSoC4/BLE.c ****     *   
 756:Generated_Source\PSoC4/BLE.c ****     *   * General Discovery procedure: A device performing the general discovery 
 757:Generated_Source\PSoC4/BLE.c ****     *                                  procedure receives the advertisement data and
 758:Generated_Source\PSoC4/BLE.c ****     *                                  scan response data from devices in both 
 759:Generated_Source\PSoC4/BLE.c ****     *                                  limited discoverable mode and the general 
 760:Generated_Source\PSoC4/BLE.c ****     *                                  discoverable mode. Received data is provided
 761:Generated_Source\PSoC4/BLE.c ****     *                                  by the event,
 762:Generated_Source\PSoC4/BLE.c ****     *                                  CYBLE_EVT_GAPC_SCAN_PROGRESS_RESULT. This 
 763:Generated_Source\PSoC4/BLE.c ****     *                                  procedure requires the scanType sub-parameter
 764:Generated_Source\PSoC4/BLE.c ****     *                                  to be active scanning.
 765:Generated_Source\PSoC4/BLE.c ****     *   
 766:Generated_Source\PSoC4/BLE.c ****     *   Every Advertisement / Scan response packet received results in a new event, 
 767:Generated_Source\PSoC4/BLE.c ****     *   CYBLE_EVT_GAPC_SCAN_PROGRESS_RESULT.
 768:Generated_Source\PSoC4/BLE.c ****     *   If 'scanTo' sub-parameter is a non-zero value, then upon commencement of 
 769:Generated_Source\PSoC4/BLE.c ****     *   discovery procedure and elapsed time = 'scanTo', CYBLE_EVT_TIMEOUT event
 770:Generated_Source\PSoC4/BLE.c ****     *   is generated with the event parameter indicating CYBLE_GAP_SCAN_TO.
 771:Generated_Source\PSoC4/BLE.c ****     *   Possible generated events are:
 772:Generated_Source\PSoC4/BLE.c ****     *   * CYBLE_EVT_GAPC_SCAN_START_STOP: If a device started or stopped scanning. 
 773:Generated_Source\PSoC4/BLE.c ****     *                                     Use CyBle_GetState() to determine the 
 774:Generated_Source\PSoC4/BLE.c ****     *                                     state. Sequential scanning could be 
ARM GAS  C:\Users\Harsha\AppData\Local\Temp\ccBsn30u.s 			page 15


 775:Generated_Source\PSoC4/BLE.c ****     *                                     started when CYBLE_STATE_DISCONNECTED 
 776:Generated_Source\PSoC4/BLE.c ****     *                                     state is returned. 
 777:Generated_Source\PSoC4/BLE.c ****     *   * CYBLE_EVT_GAPC_SCAN_PROGRESS_RESULT 
 778:Generated_Source\PSoC4/BLE.c ****     *   * CYBLE_EVT_TIMEOUT (CYBLE_GAP_SCAN_TO)
 779:Generated_Source\PSoC4/BLE.c ****     * 
 780:Generated_Source\PSoC4/BLE.c ****     *   \param uint8 scanningIntervalType:  Fast or slow scanning interval with
 781:Generated_Source\PSoC4/BLE.c ****     *       timings entered in Scan settings section of the customizer.
 782:Generated_Source\PSoC4/BLE.c ****     * 	  * CYBLE_SCANNING_FAST   0x00u
 783:Generated_Source\PSoC4/BLE.c ****     * 	  * CYBLE_SCANNING_SLOW   0x01u
 784:Generated_Source\PSoC4/BLE.c ****     * 	  * CYBLE_SCANNING_CUSTOM 0x02u
 785:Generated_Source\PSoC4/BLE.c ****     * 
 786:Generated_Source\PSoC4/BLE.c ****     * \return
 787:Generated_Source\PSoC4/BLE.c ****     *  CYBLE_API_RESULT_T : Return value indicates if the function succeeded or
 788:Generated_Source\PSoC4/BLE.c ****     *  failed. Following are the possible error codes.
 789:Generated_Source\PSoC4/BLE.c ****     *
 790:Generated_Source\PSoC4/BLE.c ****     *   Errors codes                       | Description
 791:Generated_Source\PSoC4/BLE.c ****     *   ---------------------------------- | -----------------------------------
 792:Generated_Source\PSoC4/BLE.c ****     *   CYBLE_ERROR_OK                     | On successful operation.
 793:Generated_Source\PSoC4/BLE.c ****     *   CYBLE_ERROR_STACK_INTERNAL         | An error occurred in the BLE stack.
 794:Generated_Source\PSoC4/BLE.c ****     *   CYBLE_ERROR_INVALID_PARAMETER      | On passing an invalid parameter.
 795:Generated_Source\PSoC4/BLE.c ****     *  
 796:Generated_Source\PSoC4/BLE.c ****     *******************************************************************************/
 797:Generated_Source\PSoC4/BLE.c ****     CYBLE_API_RESULT_T CyBle_GapcStartScan(uint8 scanningIntervalType)
 798:Generated_Source\PSoC4/BLE.c ****     {
 799:Generated_Source\PSoC4/BLE.c ****         CYBLE_API_RESULT_T apiResult;
 800:Generated_Source\PSoC4/BLE.c **** 
 801:Generated_Source\PSoC4/BLE.c ****         if(scanningIntervalType > CYBLE_SCANNING_CUSTOM)
 802:Generated_Source\PSoC4/BLE.c ****         {
 803:Generated_Source\PSoC4/BLE.c ****             apiResult = CYBLE_ERROR_INVALID_PARAMETER;
 804:Generated_Source\PSoC4/BLE.c ****         }
 805:Generated_Source\PSoC4/BLE.c ****         else
 806:Generated_Source\PSoC4/BLE.c ****         {
 807:Generated_Source\PSoC4/BLE.c ****             if(scanningIntervalType == CYBLE_SCANNING_FAST)
 808:Generated_Source\PSoC4/BLE.c ****             {
 809:Generated_Source\PSoC4/BLE.c ****                 cyBle_discoveryInfo.scanTo = CYBLE_FAST_SCAN_TIMEOUT;
 810:Generated_Source\PSoC4/BLE.c ****                 cyBle_discoveryInfo.scanIntv = CYBLE_FAST_SCAN_INTERVAL;
 811:Generated_Source\PSoC4/BLE.c ****                 cyBle_discoveryInfo.scanWindow = CYBLE_FAST_SCAN_WINDOW;
 812:Generated_Source\PSoC4/BLE.c ****             }
 813:Generated_Source\PSoC4/BLE.c ****             else if(scanningIntervalType == CYBLE_SCANNING_SLOW)
 814:Generated_Source\PSoC4/BLE.c ****             {
 815:Generated_Source\PSoC4/BLE.c ****                 cyBle_discoveryInfo.scanTo = CYBLE_SLOW_SCAN_TIMEOUT;
 816:Generated_Source\PSoC4/BLE.c ****                 cyBle_discoveryInfo.scanIntv = CYBLE_SLOW_SCAN_INTERVAL;
 817:Generated_Source\PSoC4/BLE.c ****                 cyBle_discoveryInfo.scanWindow = CYBLE_SLOW_SCAN_WINDOW;
 818:Generated_Source\PSoC4/BLE.c ****             }       
 819:Generated_Source\PSoC4/BLE.c ****             else /* Do not update scanning intervals */
 820:Generated_Source\PSoC4/BLE.c ****             {
 821:Generated_Source\PSoC4/BLE.c ****             }
 822:Generated_Source\PSoC4/BLE.c ****             
 823:Generated_Source\PSoC4/BLE.c ****             cyBle_scanningIntervalType = scanningIntervalType;
 824:Generated_Source\PSoC4/BLE.c ****             apiResult = CyBle_GapcStartDiscovery(&cyBle_discoveryInfo);
 825:Generated_Source\PSoC4/BLE.c ****         
 826:Generated_Source\PSoC4/BLE.c ****             if(CYBLE_ERROR_OK == apiResult)
 827:Generated_Source\PSoC4/BLE.c ****             {
 828:Generated_Source\PSoC4/BLE.c ****                 cyBle_eventHandlerFlag |= CYBLE_START_FLAG;
 829:Generated_Source\PSoC4/BLE.c ****             }
 830:Generated_Source\PSoC4/BLE.c ****         }
 831:Generated_Source\PSoC4/BLE.c ****        
ARM GAS  C:\Users\Harsha\AppData\Local\Temp\ccBsn30u.s 			page 16


 832:Generated_Source\PSoC4/BLE.c ****         return (apiResult);
 833:Generated_Source\PSoC4/BLE.c ****     }
 834:Generated_Source\PSoC4/BLE.c ****     
 835:Generated_Source\PSoC4/BLE.c ****     
 836:Generated_Source\PSoC4/BLE.c ****     /******************************************************************************
 837:Generated_Source\PSoC4/BLE.c ****     * Function Name: CyBle_GapcStopScan
 838:Generated_Source\PSoC4/BLE.c ****     ***************************************************************************//**
 839:Generated_Source\PSoC4/BLE.c ****     * 
 840:Generated_Source\PSoC4/BLE.c ****     *   This function used to stop the discovery of devices. On stopping discovery
 841:Generated_Source\PSoC4/BLE.c ****     *   operation, CYBLE_EVT_GAPC_SCAN_START_STOP event is generated. Application
 842:Generated_Source\PSoC4/BLE.c ****     *   layer needs to keep track of the function call made before receiving this
 843:Generated_Source\PSoC4/BLE.c ****     *   event to associate this event with either the start or stop discovery
 844:Generated_Source\PSoC4/BLE.c ****     *   function.
 845:Generated_Source\PSoC4/BLE.c ****     * 
 846:Generated_Source\PSoC4/BLE.c ****     *   Possible events generated are:
 847:Generated_Source\PSoC4/BLE.c ****     *    * CYBLE_EVT_GAPC_SCAN_START_STOP
 848:Generated_Source\PSoC4/BLE.c ****     * 
 849:Generated_Source\PSoC4/BLE.c ****     *  \return
 850:Generated_Source\PSoC4/BLE.c ****     *   None
 851:Generated_Source\PSoC4/BLE.c ****     * 
 852:Generated_Source\PSoC4/BLE.c ****     *******************************************************************************/
 853:Generated_Source\PSoC4/BLE.c ****     void CyBle_GapcStopScan(void)
 854:Generated_Source\PSoC4/BLE.c ****     {
 855:Generated_Source\PSoC4/BLE.c ****         CyBle_GapcStopDiscovery();
 856:Generated_Source\PSoC4/BLE.c ****         
 857:Generated_Source\PSoC4/BLE.c ****         cyBle_eventHandlerFlag |= CYBLE_STOP_FLAG;
 858:Generated_Source\PSoC4/BLE.c ****     }
 859:Generated_Source\PSoC4/BLE.c **** 
 860:Generated_Source\PSoC4/BLE.c ****     
 861:Generated_Source\PSoC4/BLE.c **** #endif /* CYBLE_GAP_ROLE_CENTRAL || CYBLE_GAP_ROLE_OBSERVER */
 862:Generated_Source\PSoC4/BLE.c **** 
 863:Generated_Source\PSoC4/BLE.c **** 
 864:Generated_Source\PSoC4/BLE.c **** #if(CYBLE_GAP_ROLE_CENTRAL)
 865:Generated_Source\PSoC4/BLE.c **** 
 866:Generated_Source\PSoC4/BLE.c ****     /******************************************************************************
 867:Generated_Source\PSoC4/BLE.c ****     * Function Name: CyBle_GapcConnectDevice
 868:Generated_Source\PSoC4/BLE.c ****     ***************************************************************************//**
 869:Generated_Source\PSoC4/BLE.c ****     * 
 870:Generated_Source\PSoC4/BLE.c ****     *  This function is used to send a connection request to the remote device with
 871:Generated_Source\PSoC4/BLE.c ****     *  the connection parameters set in the component customizer. This function needs
 872:Generated_Source\PSoC4/BLE.c ****     *  to be called only once after the target device is discovered by 
 873:Generated_Source\PSoC4/BLE.c ****     *  CyBle_GapcStartScan() and further scanning has stopped. Scanning is 
 874:Generated_Source\PSoC4/BLE.c ****     *  successfully stopped on invoking CyBle_GapcStopScan() and then receiving the
 875:Generated_Source\PSoC4/BLE.c ****     *  event CYBLE_EVT_GAPC_SCAN_START_STOP with sub-parameter 'success' = 0x01u.
 876:Generated_Source\PSoC4/BLE.c ****     *  
 877:Generated_Source\PSoC4/BLE.c ****     *  On successful connection, the following events are generated at the GAP 
 878:Generated_Source\PSoC4/BLE.c ****     *  Central device (as well as the GAP Peripheral device), in the following order.
 879:Generated_Source\PSoC4/BLE.c ****     *  * CYBLE_EVT_GATT_CONNECT_IND
 880:Generated_Source\PSoC4/BLE.c ****     *  * CYBLE_EVT_GAP_DEVICE_CONNECTED
 881:Generated_Source\PSoC4/BLE.c ****     *  
 882:Generated_Source\PSoC4/BLE.c ****     *  A procedure is considered to have timed out if a connection response packet is 
 883:Generated_Source\PSoC4/BLE.c ****     *  not received within time set by cyBle_connectingTimeout global variable
 884:Generated_Source\PSoC4/BLE.c ****     *  (30 seconds by default). CYBLE_EVT_TIMEOUT event with CYBLE_GENERIC_TO parameter
 885:Generated_Source\PSoC4/BLE.c ****     *  will indicate about connection procedure timeout. Connection will automatically
 886:Generated_Source\PSoC4/BLE.c ****     *  be canceled and state will be changed to CYBLE_STATE_DISCONNECTED.
 887:Generated_Source\PSoC4/BLE.c ****     * 
 888:Generated_Source\PSoC4/BLE.c ****     *  \param const CYBLE_GAP_BD_ADDR_T address: The device address of the remote device to 
ARM GAS  C:\Users\Harsha\AppData\Local\Temp\ccBsn30u.s 			page 17


 889:Generated_Source\PSoC4/BLE.c ****     *                                     connect to. 
 890:Generated_Source\PSoC4/BLE.c ****     *  \param timeout: Timeout for which timer to be started in seconds.
 891:Generated_Source\PSoC4/BLE.c ****     *  
 892:Generated_Source\PSoC4/BLE.c ****     * \return
 893:Generated_Source\PSoC4/BLE.c ****     *  CYBLE_API_RESULT_T : Return value indicates if the function succeeded or 
 894:Generated_Source\PSoC4/BLE.c ****     *  failed. Following are the possible error codes.
 895:Generated_Source\PSoC4/BLE.c ****     *
 896:Generated_Source\PSoC4/BLE.c ****     *   Errors codes                       | Description
 897:Generated_Source\PSoC4/BLE.c ****     *   ------------                       | -----------
 898:Generated_Source\PSoC4/BLE.c ****     *   CYBLE_ERROR_OK                     | On successful operation.
 899:Generated_Source\PSoC4/BLE.c ****     *   CYBLE_ERROR_STACK_INTERNAL         | On error occurred in the BLE stack.
 900:Generated_Source\PSoC4/BLE.c ****     *   CYBLE_ERROR_INVALID_PARAMETER      | On passing an invalid parameter.
 901:Generated_Source\PSoC4/BLE.c ****     *   CYBLE_ERROR_INVALID_STATE          | On calling this API not in Disconnected state.
 902:Generated_Source\PSoC4/BLE.c ****     *  
 903:Generated_Source\PSoC4/BLE.c ****     ******************************************************************************/
 904:Generated_Source\PSoC4/BLE.c ****     CYBLE_API_RESULT_T CyBle_GapcConnectDevice(const CYBLE_GAP_BD_ADDR_T * address)
 905:Generated_Source\PSoC4/BLE.c ****     {
 906:Generated_Source\PSoC4/BLE.c ****         CYBLE_API_RESULT_T apiResult;
 907:Generated_Source\PSoC4/BLE.c ****         uint8 i;
 908:Generated_Source\PSoC4/BLE.c **** 
 909:Generated_Source\PSoC4/BLE.c ****         if(CYBLE_STATE_DISCONNECTED != CyBle_GetState())
 910:Generated_Source\PSoC4/BLE.c ****         {
 911:Generated_Source\PSoC4/BLE.c ****             apiResult = CYBLE_ERROR_INVALID_STATE;
 912:Generated_Source\PSoC4/BLE.c ****         }
 913:Generated_Source\PSoC4/BLE.c ****         else if(address == NULL)
 914:Generated_Source\PSoC4/BLE.c ****         {
 915:Generated_Source\PSoC4/BLE.c ****             apiResult = CYBLE_ERROR_INVALID_PARAMETER;
 916:Generated_Source\PSoC4/BLE.c ****         }
 917:Generated_Source\PSoC4/BLE.c ****         else
 918:Generated_Source\PSoC4/BLE.c ****         {
 919:Generated_Source\PSoC4/BLE.c ****             for(i = 0u; i < CYBLE_GAP_BD_ADDR_SIZE; i++)
 920:Generated_Source\PSoC4/BLE.c ****             {
 921:Generated_Source\PSoC4/BLE.c ****                 cyBle_connectionParameters.peerBdAddr[i] = address->bdAddr[i];
 922:Generated_Source\PSoC4/BLE.c ****             }
 923:Generated_Source\PSoC4/BLE.c ****             cyBle_connectionParameters.peerAddrType = address -> type;
 924:Generated_Source\PSoC4/BLE.c ****             apiResult = CyBle_GapcInitConnection(&cyBle_connectionParameters);
 925:Generated_Source\PSoC4/BLE.c ****             
 926:Generated_Source\PSoC4/BLE.c ****             if(CYBLE_ERROR_OK == apiResult)
 927:Generated_Source\PSoC4/BLE.c ****             {
 928:Generated_Source\PSoC4/BLE.c ****                 CyBle_SetState(CYBLE_STATE_CONNECTING);
 929:Generated_Source\PSoC4/BLE.c ****                 if(cyBle_connectingTimeout != 0u)
 930:Generated_Source\PSoC4/BLE.c ****                 {
 931:Generated_Source\PSoC4/BLE.c ****                     (void)CyBle_StartTimer(cyBle_connectingTimeout);
 932:Generated_Source\PSoC4/BLE.c ****                 }
 933:Generated_Source\PSoC4/BLE.c ****             }
 934:Generated_Source\PSoC4/BLE.c ****         }
 935:Generated_Source\PSoC4/BLE.c ****         return (apiResult);
 936:Generated_Source\PSoC4/BLE.c ****     }
 937:Generated_Source\PSoC4/BLE.c ****     
 938:Generated_Source\PSoC4/BLE.c **** 
 939:Generated_Source\PSoC4/BLE.c ****     /******************************************************************************
 940:Generated_Source\PSoC4/BLE.c ****     * Function Name: CyBle_GapcCancelDeviceConnection
 941:Generated_Source\PSoC4/BLE.c ****     ***************************************************************************//**
 942:Generated_Source\PSoC4/BLE.c ****     * 
 943:Generated_Source\PSoC4/BLE.c ****     *  This function cancels a previously initiated connection with the remote 
 944:Generated_Source\PSoC4/BLE.c ****     *  device. It is a blocking function. No event is generated on calling this 
 945:Generated_Source\PSoC4/BLE.c ****     *  function. If the devices are already connected then this function should not
ARM GAS  C:\Users\Harsha\AppData\Local\Temp\ccBsn30u.s 			page 18


 946:Generated_Source\PSoC4/BLE.c ****     *  be used. If you intend to disconnect from an existing connection, the function
 947:Generated_Source\PSoC4/BLE.c ****     *  CyBle_GapDisconnect() should be used.
 948:Generated_Source\PSoC4/BLE.c ****     * 
 949:Generated_Source\PSoC4/BLE.c ****     * \return
 950:Generated_Source\PSoC4/BLE.c ****     *  CYBLE_API_RESULT_T : Return value indicates if the function succeeded or 
 951:Generated_Source\PSoC4/BLE.c ****     *  failed. Following are the possible error codes.
 952:Generated_Source\PSoC4/BLE.c ****     *
 953:Generated_Source\PSoC4/BLE.c ****     *   Errors codes                       | Description
 954:Generated_Source\PSoC4/BLE.c ****     *   ---------------------------------- | --------------------------------------
 955:Generated_Source\PSoC4/BLE.c ****     *   CYBLE_ERROR_OK                     | On successful operation.
 956:Generated_Source\PSoC4/BLE.c ****     *   CYBLE_ERROR_STACK_INTERNAL         | An error occurred in the BLE stack.
 957:Generated_Source\PSoC4/BLE.c ****     *   CYBLE_ERROR_INVALID_OPERATION      | Device is already connected.
 958:Generated_Source\PSoC4/BLE.c ****     *  
 959:Generated_Source\PSoC4/BLE.c ****     *******************************************************************************/
 960:Generated_Source\PSoC4/BLE.c ****     CYBLE_API_RESULT_T CyBle_GapcCancelDeviceConnection(void)
 961:Generated_Source\PSoC4/BLE.c ****     {
 962:Generated_Source\PSoC4/BLE.c ****         CYBLE_API_RESULT_T apiResult;
 963:Generated_Source\PSoC4/BLE.c ****         
 964:Generated_Source\PSoC4/BLE.c ****         apiResult = CyBle_GapcCancelConnection();
 965:Generated_Source\PSoC4/BLE.c ****             
 966:Generated_Source\PSoC4/BLE.c ****         if(cyBle_connectingTimeout != 0u)
 967:Generated_Source\PSoC4/BLE.c ****         {
 968:Generated_Source\PSoC4/BLE.c ****             (void)CyBle_StopTimer();
 969:Generated_Source\PSoC4/BLE.c ****         }
 970:Generated_Source\PSoC4/BLE.c **** 
 971:Generated_Source\PSoC4/BLE.c ****         if(CYBLE_ERROR_OK == apiResult)
 972:Generated_Source\PSoC4/BLE.c ****         {
 973:Generated_Source\PSoC4/BLE.c ****             CyBle_SetState(CYBLE_STATE_DISCONNECTED);
 974:Generated_Source\PSoC4/BLE.c ****         }
 975:Generated_Source\PSoC4/BLE.c ****         return (apiResult);
 976:Generated_Source\PSoC4/BLE.c ****     }    
 977:Generated_Source\PSoC4/BLE.c **** 
 978:Generated_Source\PSoC4/BLE.c ****     
 979:Generated_Source\PSoC4/BLE.c **** #endif /* CYBLE_GAP_ROLE_CENTRAL */
 980:Generated_Source\PSoC4/BLE.c **** 
 981:Generated_Source\PSoC4/BLE.c **** 
 982:Generated_Source\PSoC4/BLE.c **** #if(CYBLE_GATT_ROLE_SERVER)
 983:Generated_Source\PSoC4/BLE.c **** 
 984:Generated_Source\PSoC4/BLE.c **** #if(CYBLE_GAP_ROLE_PERIPHERAL)
 985:Generated_Source\PSoC4/BLE.c **** 
 986:Generated_Source\PSoC4/BLE.c ****         /******************************************************************************
 987:Generated_Source\PSoC4/BLE.c ****         * Function Name: CyBle_ChangeAdLocalName
 988:Generated_Source\PSoC4/BLE.c ****         ***************************************************************************//**
 989:Generated_Source\PSoC4/BLE.c ****         *  This API is used to set the local device name in the advertisement or scan 
 990:Generated_Source\PSoC4/BLE.c ****         *  response data structure.
 991:Generated_Source\PSoC4/BLE.c ****         * 
 992:Generated_Source\PSoC4/BLE.c ****         *  \param char8 name: The local device name string to be set in advertisement data 
 993:Generated_Source\PSoC4/BLE.c ****         *            structure.
 994:Generated_Source\PSoC4/BLE.c ****         *  \param uint8 dest: 0 - advertisement structure, not zero value selects scan response
 995:Generated_Source\PSoC4/BLE.c ****         *              structure.
 996:Generated_Source\PSoC4/BLE.c ****         * 
 997:Generated_Source\PSoC4/BLE.c ****         * \return
 998:Generated_Source\PSoC4/BLE.c ****         *  None
 999:Generated_Source\PSoC4/BLE.c ****         *  
1000:Generated_Source\PSoC4/BLE.c ****         *******************************************************************************/
1001:Generated_Source\PSoC4/BLE.c ****         static void CyBle_ChangeAdLocalName(const char8 name[], uint8 dest)
1002:Generated_Source\PSoC4/BLE.c ****         {
ARM GAS  C:\Users\Harsha\AppData\Local\Temp\ccBsn30u.s 			page 19


  25              		.loc 1 1002 0
  26              		.cfi_startproc
  27              	.LVL0:
  28 0000 70B5     		push	{r4, r5, r6, lr}
  29              		.cfi_def_cfa_offset 16
  30              		.cfi_offset 4, -16
  31              		.cfi_offset 5, -12
  32              		.cfi_offset 6, -8
  33              		.cfi_offset 14, -4
  34              	.LVL1:
1003:Generated_Source\PSoC4/BLE.c ****             uint8 i;
1004:Generated_Source\PSoC4/BLE.c ****             uint8 flag = 0u;
1005:Generated_Source\PSoC4/BLE.c ****             uint8 adLength = 0u;
1006:Generated_Source\PSoC4/BLE.c ****             uint8 byteCounter = 0u;
1007:Generated_Source\PSoC4/BLE.c ****             uint8 *destBuffer;
1008:Generated_Source\PSoC4/BLE.c ****             uint8 maxLength;
1009:Generated_Source\PSoC4/BLE.c ****             
1010:Generated_Source\PSoC4/BLE.c ****             if(dest == 0u)      /* Destination - advertising structure */
  35              		.loc 1 1010 0
  36 0002 0029     		cmp	r1, #0
  37 0004 05D1     		bne	.L2
  38              	.LVL2:
1011:Generated_Source\PSoC4/BLE.c ****             {
1012:Generated_Source\PSoC4/BLE.c ****                 destBuffer = cyBle_discoveryData.advData;
1013:Generated_Source\PSoC4/BLE.c ****                 maxLength = cyBle_discoveryData.advDataLen;
  39              		.loc 1 1013 0
  40 0006 1A4C     		ldr	r4, .L15
  41 0008 E67F     		ldrb	r6, [r4, #31]
  42              	.LVL3:
  43              	.L4:
1014:Generated_Source\PSoC4/BLE.c ****             }
1015:Generated_Source\PSoC4/BLE.c ****             else                /* Destination - scan response structure */
1016:Generated_Source\PSoC4/BLE.c ****             {
1017:Generated_Source\PSoC4/BLE.c ****                 destBuffer = cyBle_scanRspData.scanRspData;
1018:Generated_Source\PSoC4/BLE.c ****                 maxLength = cyBle_scanRspData.scanRspDataLen;
1019:Generated_Source\PSoC4/BLE.c ****             }
1020:Generated_Source\PSoC4/BLE.c ****             
1021:Generated_Source\PSoC4/BLE.c ****             while((byteCounter < maxLength) && (0u == flag))
1022:Generated_Source\PSoC4/BLE.c ****             {
1023:Generated_Source\PSoC4/BLE.c ****                 adLength = destBuffer[byteCounter];
1024:Generated_Source\PSoC4/BLE.c ****                 
1025:Generated_Source\PSoC4/BLE.c ****                 if(0u != adLength)
1026:Generated_Source\PSoC4/BLE.c ****                 {
1027:Generated_Source\PSoC4/BLE.c ****                     /* Increment byte counter so it can point to AD type */
1028:Generated_Source\PSoC4/BLE.c ****                     byteCounter++;
1029:Generated_Source\PSoC4/BLE.c ****                     
1030:Generated_Source\PSoC4/BLE.c ****                     if((CYBLE_SHORT_LOCAL_NAME == destBuffer[byteCounter]) || 
1031:Generated_Source\PSoC4/BLE.c ****                        (CYBLE_COMPLETE_LOCAL_NAME == destBuffer[byteCounter]))
1032:Generated_Source\PSoC4/BLE.c ****                     {
1033:Generated_Source\PSoC4/BLE.c ****                         /* Start of the Local Name AD type was fount. Set flag and exit the loop. *
1034:Generated_Source\PSoC4/BLE.c ****                         flag = 1u;
  44              		.loc 1 1034 0
  45 000a 0023     		mov	r3, #0
  46 000c 0022     		mov	r2, #0
  47 000e 0025     		mov	r5, #0
  48 0010 0FE0     		b	.L3
  49              	.LVL4:
ARM GAS  C:\Users\Harsha\AppData\Local\Temp\ccBsn30u.s 			page 20


  50              	.L2:
1018:Generated_Source\PSoC4/BLE.c ****             }
  51              		.loc 1 1018 0
  52 0012 184C     		ldr	r4, .L15+4
  53 0014 E67F     		ldrb	r6, [r4, #31]
  54              	.LVL5:
  55 0016 F8E7     		b	.L4
  56              	.LVL6:
  57              	.L7:
1023:Generated_Source\PSoC4/BLE.c ****                 
  58              		.loc 1 1023 0
  59 0018 E25C     		ldrb	r2, [r4, r3]
  60              	.LVL7:
1025:Generated_Source\PSoC4/BLE.c ****                 {
  61              		.loc 1 1025 0
  62 001a 002A     		cmp	r2, #0
  63 001c 0DD0     		beq	.L5
1028:Generated_Source\PSoC4/BLE.c ****                     
  64              		.loc 1 1028 0
  65 001e 0133     		add	r3, r3, #1
  66              	.LVL8:
  67 0020 DBB2     		uxtb	r3, r3
  68              	.LVL9:
1030:Generated_Source\PSoC4/BLE.c ****                        (CYBLE_COMPLETE_LOCAL_NAME == destBuffer[byteCounter]))
  69              		.loc 1 1030 0
  70 0022 E15C     		ldrb	r1, [r4, r3]
  71 0024 0839     		sub	r1, r1, #8
  72 0026 0129     		cmp	r1, #1
  73 0028 02D9     		bls	.L14
1035:Generated_Source\PSoC4/BLE.c ****                     }
1036:Generated_Source\PSoC4/BLE.c ****                     else
1037:Generated_Source\PSoC4/BLE.c ****                     {
1038:Generated_Source\PSoC4/BLE.c ****                         byteCounter += adLength;
  74              		.loc 1 1038 0
  75 002a 9B18     		add	r3, r3, r2
  76              	.LVL10:
  77 002c DBB2     		uxtb	r3, r3
  78              	.LVL11:
  79 002e 00E0     		b	.L3
  80              	.L14:
1034:Generated_Source\PSoC4/BLE.c ****                     }
  81              		.loc 1 1034 0
  82 0030 0125     		mov	r5, #1
  83              	.LVL12:
  84              	.L3:
1021:Generated_Source\PSoC4/BLE.c ****             {
  85              		.loc 1 1021 0
  86 0032 B342     		cmp	r3, r6
  87 0034 01D2     		bcs	.L5
1021:Generated_Source\PSoC4/BLE.c ****             {
  88              		.loc 1 1021 0 is_stmt 0 discriminator 1
  89 0036 002D     		cmp	r5, #0
  90 0038 EED0     		beq	.L7
  91              	.L5:
1039:Generated_Source\PSoC4/BLE.c ****                     }
1040:Generated_Source\PSoC4/BLE.c ****                 }
1041:Generated_Source\PSoC4/BLE.c ****                 else
ARM GAS  C:\Users\Harsha\AppData\Local\Temp\ccBsn30u.s 			page 21


1042:Generated_Source\PSoC4/BLE.c ****                 {
1043:Generated_Source\PSoC4/BLE.c ****                     /* The end of advertisement data structure was encountered though exit the loop
1044:Generated_Source\PSoC4/BLE.c ****                     break;
1045:Generated_Source\PSoC4/BLE.c ****                 }
1046:Generated_Source\PSoC4/BLE.c ****             }
1047:Generated_Source\PSoC4/BLE.c ****             
1048:Generated_Source\PSoC4/BLE.c ****             if(0u != flag)
  92              		.loc 1 1048 0 is_stmt 1
  93 003a 002D     		cmp	r5, #0
  94 003c 16D0     		beq	.L1
1049:Generated_Source\PSoC4/BLE.c ****             {
1050:Generated_Source\PSoC4/BLE.c ****                 /* Reuse "adLength" to hold location of the last character of local name in 
1051:Generated_Source\PSoC4/BLE.c ****                    AD structure. */
1052:Generated_Source\PSoC4/BLE.c ****                 adLength += byteCounter;
  95              		.loc 1 1052 0
  96 003e D218     		add	r2, r2, r3
  97              	.LVL13:
  98 0040 D1B2     		uxtb	r1, r2
  99              	.LVL14:
1053:Generated_Source\PSoC4/BLE.c ****                 
1054:Generated_Source\PSoC4/BLE.c ****                 /* Increment byte counter to point to start of the local Name string */
1055:Generated_Source\PSoC4/BLE.c ****                 byteCounter++;
 100              		.loc 1 1055 0
 101 0042 0133     		add	r3, r3, #1
 102              	.LVL15:
 103 0044 DBB2     		uxtb	r3, r3
 104              	.LVL16:
1056:Generated_Source\PSoC4/BLE.c ****                 
1057:Generated_Source\PSoC4/BLE.c ****                 for(i = byteCounter; ((i < (adLength)) && (CYBLE_NULL_CHARCTER != name[i - byteCoun
 105              		.loc 1 1057 0
 106 0046 1A1C     		mov	r2, r3
 107 0048 02E0     		b	.L9
 108              	.LVL17:
 109              	.L11:
1058:Generated_Source\PSoC4/BLE.c ****                 {
1059:Generated_Source\PSoC4/BLE.c ****                     destBuffer[i] = (uint8)name[i - byteCounter];
 110              		.loc 1 1059 0 discriminator 4
 111 004a A554     		strb	r5, [r4, r2]
1057:Generated_Source\PSoC4/BLE.c ****                 {
 112              		.loc 1 1057 0 discriminator 4
 113 004c 0132     		add	r2, r2, #1
 114              	.LVL18:
 115 004e D2B2     		uxtb	r2, r2
 116              	.LVL19:
 117              	.L9:
1057:Generated_Source\PSoC4/BLE.c ****                 {
 118              		.loc 1 1057 0 is_stmt 0 discriminator 1
 119 0050 8A42     		cmp	r2, r1
 120 0052 09D2     		bcs	.L12
1057:Generated_Source\PSoC4/BLE.c ****                 {
 121              		.loc 1 1057 0 discriminator 3
 122 0054 D51A     		sub	r5, r2, r3
 123 0056 455D     		ldrb	r5, [r0, r5]
 124 0058 002D     		cmp	r5, #0
 125 005a F6D1     		bne	.L11
 126 005c 04E0     		b	.L12
 127              	.LVL20:
ARM GAS  C:\Users\Harsha\AppData\Local\Temp\ccBsn30u.s 			page 22


 128              	.L13:
1060:Generated_Source\PSoC4/BLE.c ****                 }
1061:Generated_Source\PSoC4/BLE.c ****                 
1062:Generated_Source\PSoC4/BLE.c ****                 /* This loop handles the case when new local name is shorted than old one.
1063:Generated_Source\PSoC4/BLE.c ****                    In this case all remaining characters should be null characters. */
1064:Generated_Source\PSoC4/BLE.c ****                 while(adLength > i)
1065:Generated_Source\PSoC4/BLE.c ****                 {
1066:Generated_Source\PSoC4/BLE.c ****                     /* Terminate string */
1067:Generated_Source\PSoC4/BLE.c ****                     destBuffer[i] = (uint8)CYBLE_NULL_CHARCTER;
 129              		.loc 1 1067 0 is_stmt 1
 130 005e A318     		add	r3, r4, r2
 131 0060 0020     		mov	r0, #0
 132 0062 1870     		strb	r0, [r3]
1068:Generated_Source\PSoC4/BLE.c ****                     i++;
 133              		.loc 1 1068 0
 134 0064 0132     		add	r2, r2, #1
 135              	.LVL21:
 136 0066 D2B2     		uxtb	r2, r2
 137              	.LVL22:
 138              	.L12:
1064:Generated_Source\PSoC4/BLE.c ****                 {
 139              		.loc 1 1064 0
 140 0068 9142     		cmp	r1, r2
 141 006a F8D8     		bhi	.L13
 142              	.LVL23:
 143              	.L1:
1069:Generated_Source\PSoC4/BLE.c ****                 }
1070:Generated_Source\PSoC4/BLE.c ****             }
1071:Generated_Source\PSoC4/BLE.c ****         }
 144              		.loc 1 1071 0
 145              		@ sp needed
 146              	.LVL24:
 147              	.LVL25:
 148 006c 70BD     		pop	{r4, r5, r6, pc}
 149              	.L16:
 150 006e C046     		.align	2
 151              	.L15:
 152 0070 00000000 		.word	.LANCHOR0
 153 0074 00000000 		.word	.LANCHOR1
 154              		.cfi_endproc
 155              	.LFE9:
 156              		.size	CyBle_ChangeAdLocalName, .-CyBle_ChangeAdLocalName
 157              		.section	.text.CyBle_ServiceInit,"ax",%progbits
 158              		.align	2
 159              		.global	CyBle_ServiceInit
 160              		.code	16
 161              		.thumb_func
 162              		.type	CyBle_ServiceInit, %function
 163              	CyBle_ServiceInit:
 164              	.LFB3:
 208:Generated_Source\PSoC4/BLE.c ****     #if(CYBLE_GATT_ROLE_CLIENT)
 165              		.loc 1 208 0
 166              		.cfi_startproc
 167 0000 08B5     		push	{r3, lr}
 168              		.cfi_def_cfa_offset 8
 169              		.cfi_offset 3, -8
 170              		.cfi_offset 14, -4
ARM GAS  C:\Users\Harsha\AppData\Local\Temp\ccBsn30u.s 			page 23


 210:Generated_Source\PSoC4/BLE.c ****         (void)memset(&cyBle_gattc, 0, sizeof(cyBle_gattc));
 171              		.loc 1 210 0
 172 0002 074A     		ldr	r2, .L18
 173 0004 0023     		mov	r3, #0
 174 0006 1380     		strh	r3, [r2]
 175 0008 5380     		strh	r3, [r2, #2]
 176 000a 9380     		strh	r3, [r2, #4]
 177 000c D380     		strh	r3, [r2, #6]
 178 000e 1381     		strh	r3, [r2, #8]
 211:Generated_Source\PSoC4/BLE.c ****     #endif /* CYBLE_GATT_ROLE_CLIENT */
 179              		.loc 1 211 0
 180 0010 044A     		ldr	r2, .L18+4
 181 0012 1380     		strh	r3, [r2]
 182 0014 5380     		strh	r3, [r2, #2]
 183 0016 9380     		strh	r3, [r2, #4]
 263:Generated_Source\PSoC4/BLE.c ****     #endif /* CYBLE_CUSTOM */
 184              		.loc 1 263 0
 185 0018 FFF7FEFF 		bl	CyBle_CustomInit
 186              	.LVL26:
 321:Generated_Source\PSoC4/BLE.c **** 
 187              		.loc 1 321 0
 188              		@ sp needed
 189 001c 08BD     		pop	{r3, pc}
 190              	.L19:
 191 001e C046     		.align	2
 192              	.L18:
 193 0020 00000000 		.word	cyBle_gapc
 194 0024 00000000 		.word	cyBle_gattc
 195              		.cfi_endproc
 196              	.LFE3:
 197              		.size	CyBle_ServiceInit, .-CyBle_ServiceInit
 198              		.section	.text.CyBle_Init,"ax",%progbits
 199              		.align	2
 200              		.global	CyBle_Init
 201              		.code	16
 202              		.thumb_func
 203              		.type	CyBle_Init, %function
 204              	CyBle_Init:
 205              	.LFB2:
 159:Generated_Source\PSoC4/BLE.c ****     cyBle_eventHandlerFlag = 0u;
 206              		.loc 1 159 0
 207              		.cfi_startproc
 208 0000 08B5     		push	{r3, lr}
 209              		.cfi_def_cfa_offset 8
 210              		.cfi_offset 3, -8
 211              		.cfi_offset 14, -4
 160:Generated_Source\PSoC4/BLE.c ****     cyBle_busyStatus = CYBLE_STACK_STATE_FREE;
 212              		.loc 1 160 0
 213 0002 0023     		mov	r3, #0
 214 0004 044A     		ldr	r2, .L21
 215 0006 1370     		strb	r3, [r2]
 161:Generated_Source\PSoC4/BLE.c **** 
 216              		.loc 1 161 0
 217 0008 044A     		ldr	r2, .L21+4
 218 000a 1370     		strb	r3, [r2]
 164:Generated_Source\PSoC4/BLE.c ****     #endif /* (CYBLE_GAP_ROLE_PERIPHERAL || CYBLE_GAP_ROLE_BROADCASTER)  */
 219              		.loc 1 164 0
ARM GAS  C:\Users\Harsha\AppData\Local\Temp\ccBsn30u.s 			page 24


 220 000c 044A     		ldr	r2, .L21+8
 221 000e 1370     		strb	r3, [r2]
 187:Generated_Source\PSoC4/BLE.c **** 
 222              		.loc 1 187 0
 223 0010 FFF7FEFF 		bl	CyBle_ServiceInit
 224              	.LVL27:
 194:Generated_Source\PSoC4/BLE.c **** 
 225              		.loc 1 194 0
 226              		@ sp needed
 227 0014 08BD     		pop	{r3, pc}
 228              	.L22:
 229 0016 C046     		.align	2
 230              	.L21:
 231 0018 00000000 		.word	cyBle_eventHandlerFlag
 232 001c 00000000 		.word	cyBle_busyStatus
 233 0020 00000000 		.word	cyBle_advertisingIntervalType
 234              		.cfi_endproc
 235              	.LFE2:
 236              		.size	CyBle_Init, .-CyBle_Init
 237              		.section	.text.CyBle_Start,"ax",%progbits
 238              		.align	2
 239              		.global	CyBle_Start
 240              		.code	16
 241              		.thumb_func
 242              		.type	CyBle_Start, %function
 243              	CyBle_Start:
 244              	.LFB4:
 383:Generated_Source\PSoC4/BLE.c ****     CYBLE_API_RESULT_T apiResult = CYBLE_ERROR_OK;
 245              		.loc 1 383 0
 246              		.cfi_startproc
 247              	.LVL28:
 248 0000 10B5     		push	{r4, lr}
 249              		.cfi_def_cfa_offset 8
 250              		.cfi_offset 4, -8
 251              		.cfi_offset 14, -4
 252 0002 8AB0     		sub	sp, sp, #40
 253              		.cfi_def_cfa_offset 48
 254 0004 041C     		mov	r4, r0
 255              	.LVL29:
 388:Generated_Source\PSoC4/BLE.c ****     {
 256              		.loc 1 388 0
 257 0006 04A8     		add	r0, sp, #16
 258              	.LVL30:
 259 0008 1849     		ldr	r1, .L27
 260 000a 1822     		mov	r2, #24
 261 000c FFF7FEFF 		bl	memcpy
 262              	.LVL31:
 401:Generated_Source\PSoC4/BLE.c ****     {
 263              		.loc 1 401 0
 264 0010 2023     		mov	r3, #32
 265 0012 174A     		ldr	r2, .L27+4
 266 0014 D35C     		ldrb	r3, [r2, r3]
 267 0016 002B     		cmp	r3, #0
 268 0018 05D1     		bne	.L24
 403:Generated_Source\PSoC4/BLE.c ****         cyBle_initVar = 1u;
 269              		.loc 1 403 0
 270 001a FFF7FEFF 		bl	CyBle_Init
ARM GAS  C:\Users\Harsha\AppData\Local\Temp\ccBsn30u.s 			page 25


 271              	.LVL32:
 404:Generated_Source\PSoC4/BLE.c ****     }
 272              		.loc 1 404 0
 273 001e 0121     		mov	r1, #1
 274 0020 2023     		mov	r3, #32
 275 0022 134A     		ldr	r2, .L27+4
 276 0024 D154     		strb	r1, [r2, r3]
 277              	.L24:
 407:Generated_Source\PSoC4/BLE.c ****     {
 278              		.loc 1 407 0
 279 0026 002C     		cmp	r4, #0
 280 0028 1CD0     		beq	.L26
 422:Generated_Source\PSoC4/BLE.c ****                 cyBle_stackDataBuff, CYBLE_STACK_BUF_COUNT, cyBle_flashStorage.stackFlashptr, CYBLE
 281              		.loc 1 422 0
 282 002a 0623     		mov	r3, #6
 283 002c 0093     		str	r3, [sp]
 284 002e 114B     		ldr	r3, .L27+8
 285 0030 0193     		str	r3, [sp, #4]
 286 0032 6E23     		mov	r3, #110
 287 0034 FF33     		add	r3, r3, #255
 288 0036 0293     		str	r3, [sp, #8]
 289 0038 0F48     		ldr	r0, .L27+12
 290 003a 1049     		ldr	r1, .L27+16
 291 003c 104A     		ldr	r2, .L27+20
 292 003e 04AB     		add	r3, sp, #16
 293 0040 FFF7FEFF 		bl	CyBle_StackInit
 294              	.LVL33:
 429:Generated_Source\PSoC4/BLE.c ****             
 295              		.loc 1 429 0
 296 0044 0F4B     		ldr	r3, .L27+24
 297 0046 1C60     		str	r4, [r3]
 432:Generated_Source\PSoC4/BLE.c ****             {
 298              		.loc 1 432 0
 299 0048 0028     		cmp	r0, #0
 300 004a 0CD1     		bne	.L25
 434:Generated_Source\PSoC4/BLE.c ****                 
 301              		.loc 1 434 0
 302 004c 0122     		mov	r2, #1
 303 004e 0E4B     		ldr	r3, .L27+28
 304 0050 1A70     		strb	r2, [r3]
 437:Generated_Source\PSoC4/BLE.c ****             #endif /* CYBLE_GATT_ROLE_CLIENT */
 305              		.loc 1 437 0
 306 0052 0732     		add	r2, r2, #7
 307 0054 0D4B     		ldr	r3, .L27+32
 308 0056 1A70     		strb	r2, [r3]
 441:Generated_Source\PSoC4/BLE.c ****             #endif /* CYBLE_GATT_ROLE_SERVER */
 309              		.loc 1 441 0
 310 0058 0D48     		ldr	r0, .L27+36
 311              	.LVL34:
 312 005a 1121     		mov	r1, #17
 313 005c 0332     		add	r2, r2, #3
 314 005e FFF7FEFF 		bl	CyBle_GattsDbRegister
 315              	.LVL35:
 316 0062 00E0     		b	.L25
 317              	.LVL36:
 318              	.L26:
 448:Generated_Source\PSoC4/BLE.c ****     }
ARM GAS  C:\Users\Harsha\AppData\Local\Temp\ccBsn30u.s 			page 26


 319              		.loc 1 448 0
 320 0064 0120     		mov	r0, #1
 321              	.LVL37:
 322              	.L25:
 452:Generated_Source\PSoC4/BLE.c **** 
 323              		.loc 1 452 0
 324 0066 0AB0     		add	sp, sp, #40
 325              		@ sp needed
 326              	.LVL38:
 327 0068 10BD     		pop	{r4, pc}
 328              	.L28:
 329 006a C046     		.align	2
 330              	.L27:
 331 006c 00000000 		.word	.LANCHOR2
 332 0070 00000000 		.word	.LANCHOR1
 333 0074 00000000 		.word	cyBle_flashStorage
 334 0078 00000000 		.word	CyBle_EventHandler
 335 007c 00000000 		.word	cyBle_stackMemoryRam
 336 0080 C40A0000 		.word	2756
 337 0084 00000000 		.word	CyBle_ApplCallback
 338 0088 00000000 		.word	cyBle_state
 339 008c 00000000 		.word	cyBle_clientState
 340 0090 00000000 		.word	cyBle_gattDB
 341              		.cfi_endproc
 342              	.LFE4:
 343              		.size	CyBle_Start, .-CyBle_Start
 344              		.section	.text.CyBle_Stop,"ax",%progbits
 345              		.align	2
 346              		.global	CyBle_Stop
 347              		.code	16
 348              		.thumb_func
 349              		.type	CyBle_Stop, %function
 350              	CyBle_Stop:
 351              	.LFB5:
 468:Generated_Source\PSoC4/BLE.c ****     CyBle_Shutdown();                         /* Stop all ongoing activities */
 352              		.loc 1 468 0
 353              		.cfi_startproc
 354 0000 08B5     		push	{r3, lr}
 355              		.cfi_def_cfa_offset 8
 356              		.cfi_offset 3, -8
 357              		.cfi_offset 14, -4
 469:Generated_Source\PSoC4/BLE.c ****     CyBle_SetState(CYBLE_STATE_STOPPED);
 358              		.loc 1 469 0
 359 0002 FFF7FEFF 		bl	CyBle_Shutdown
 360              	.LVL39:
 470:Generated_Source\PSoC4/BLE.c ****     #if(CYBLE_SHARING_MODE_EXPORT)
 361              		.loc 1 470 0
 362 0006 0022     		mov	r2, #0
 363 0008 014B     		ldr	r3, .L30
 364 000a 1A70     		strb	r2, [r3]
 477:Generated_Source\PSoC4/BLE.c **** 
 365              		.loc 1 477 0
 366              		@ sp needed
 367 000c 08BD     		pop	{r3, pc}
 368              	.L31:
 369 000e C046     		.align	2
 370              	.L30:
ARM GAS  C:\Users\Harsha\AppData\Local\Temp\ccBsn30u.s 			page 27


 371 0010 00000000 		.word	cyBle_state
 372              		.cfi_endproc
 373              	.LFE5:
 374              		.size	CyBle_Stop, .-CyBle_Stop
 375              		.section	.text.CyBle_GappStartAdvertisement,"ax",%progbits
 376              		.align	2
 377              		.global	CyBle_GappStartAdvertisement
 378              		.code	16
 379              		.thumb_func
 380              		.type	CyBle_GappStartAdvertisement, %function
 381              	CyBle_GappStartAdvertisement:
 382              	.LFB6:
 609:Generated_Source\PSoC4/BLE.c ****         CYBLE_API_RESULT_T apiResult;
 383              		.loc 1 609 0
 384              		.cfi_startproc
 385              	.LVL40:
 386 0000 08B5     		push	{r3, lr}
 387              		.cfi_def_cfa_offset 8
 388              		.cfi_offset 3, -8
 389              		.cfi_offset 14, -4
 612:Generated_Source\PSoC4/BLE.c ****         {
 390              		.loc 1 612 0
 391 0002 0228     		cmp	r0, #2
 392 0004 2DD8     		bhi	.L36
 616:Generated_Source\PSoC4/BLE.c ****         {   
 393              		.loc 1 616 0
 394 0006 1B4B     		ldr	r3, .L39
 395 0008 1B78     		ldrb	r3, [r3]
 396 000a 042B     		cmp	r3, #4
 397 000c 2BD1     		bne	.L37
 616:Generated_Source\PSoC4/BLE.c ****         {   
 398              		.loc 1 616 0 is_stmt 0 discriminator 1
 399 000e 1A4B     		ldr	r3, .L39+4
 400 0010 1B78     		ldrb	r3, [r3]
 401 0012 5B07     		lsl	r3, r3, #29
 402 0014 2AD4     		bmi	.L38
 618:Generated_Source\PSoC4/BLE.c ****             {
 403              		.loc 1 618 0 is_stmt 1
 404 0016 0028     		cmp	r0, #0
 405 0018 08D1     		bne	.L34
 620:Generated_Source\PSoC4/BLE.c ****                 cyBle_discoveryModeInfo.advParam->advIntvMin = CYBLE_FAST_ADV_INT_MIN;
 406              		.loc 1 620 0
 407 001a 184B     		ldr	r3, .L39+8
 408 001c 0022     		mov	r2, #0
 409 001e 1A86     		strh	r2, [r3, #48]
 621:Generated_Source\PSoC4/BLE.c ****                 cyBle_discoveryModeInfo.advParam->advIntvMax = CYBLE_FAST_ADV_INT_MAX;
 410              		.loc 1 621 0
 411 0020 2032     		add	r2, r2, #32
 412 0022 596A     		ldr	r1, [r3, #36]
 413 0024 0A80     		strh	r2, [r1]
 622:Generated_Source\PSoC4/BLE.c ****             }
 414              		.loc 1 622 0
 415 0026 5B6A     		ldr	r3, [r3, #36]
 416 0028 5A80     		strh	r2, [r3, #2]
 417 002a 0CE0     		b	.L35
 418              	.L34:
 624:Generated_Source\PSoC4/BLE.c ****             {
ARM GAS  C:\Users\Harsha\AppData\Local\Temp\ccBsn30u.s 			page 28


 419              		.loc 1 624 0
 420 002c 0128     		cmp	r0, #1
 421 002e 0AD1     		bne	.L35
 626:Generated_Source\PSoC4/BLE.c ****                 cyBle_discoveryModeInfo.advParam->advIntvMin = CYBLE_SLOW_ADV_INT_MIN;
 422              		.loc 1 626 0
 423 0030 124B     		ldr	r3, .L39+8
 424 0032 9622     		mov	r2, #150
 425 0034 1A86     		strh	r2, [r3, #48]
 627:Generated_Source\PSoC4/BLE.c ****                 cyBle_discoveryModeInfo.advParam->advIntvMax = CYBLE_SLOW_ADV_INT_MAX;
 426              		.loc 1 627 0
 427 0036 C822     		mov	r2, #200
 428 0038 D200     		lsl	r2, r2, #3
 429 003a 596A     		ldr	r1, [r3, #36]
 430 003c 0A80     		strh	r2, [r1]
 628:Generated_Source\PSoC4/BLE.c ****             }       
 431              		.loc 1 628 0
 432 003e 5B6A     		ldr	r3, [r3, #36]
 433 0040 8022     		mov	r2, #128
 434 0042 D201     		lsl	r2, r2, #7
 435 0044 5A80     		strh	r2, [r3, #2]
 436              	.L35:
 633:Generated_Source\PSoC4/BLE.c ****             apiResult = CyBle_GappEnterDiscoveryMode(&cyBle_discoveryModeInfo);
 437              		.loc 1 633 0
 438 0046 0E4B     		ldr	r3, .L39+12
 439 0048 1870     		strb	r0, [r3]
 634:Generated_Source\PSoC4/BLE.c ****         
 440              		.loc 1 634 0
 441 004a 0C48     		ldr	r0, .L39+8
 442              	.LVL41:
 443 004c 2030     		add	r0, r0, #32
 444 004e FFF7FEFF 		bl	CyBle_GappEnterDiscoveryMode
 445              	.LVL42:
 636:Generated_Source\PSoC4/BLE.c ****             {
 446              		.loc 1 636 0
 447 0052 0028     		cmp	r0, #0
 448 0054 0CD1     		bne	.L33
 638:Generated_Source\PSoC4/BLE.c ****             }
 449              		.loc 1 638 0
 450 0056 084A     		ldr	r2, .L39+4
 451 0058 1178     		ldrb	r1, [r2]
 452 005a 0423     		mov	r3, #4
 453 005c 0B43     		orr	r3, r1
 454 005e 1370     		strb	r3, [r2]
 455 0060 06E0     		b	.L33
 456              	.LVL43:
 457              	.L36:
 614:Generated_Source\PSoC4/BLE.c ****         }
 458              		.loc 1 614 0
 459 0062 0120     		mov	r0, #1
 460              	.LVL44:
 461 0064 04E0     		b	.L33
 462              	.LVL45:
 463              	.L37:
 643:Generated_Source\PSoC4/BLE.c ****         }
 464              		.loc 1 643 0
 465 0066 0420     		mov	r0, #4
 466              	.LVL46:
ARM GAS  C:\Users\Harsha\AppData\Local\Temp\ccBsn30u.s 			page 29


 467 0068 FF30     		add	r0, r0, #255
 468 006a 01E0     		b	.L33
 469              	.LVL47:
 470              	.L38:
 471 006c 0420     		mov	r0, #4
 472              	.LVL48:
 473 006e FF30     		add	r0, r0, #255
 474              	.L33:
 475              	.LVL49:
 647:Generated_Source\PSoC4/BLE.c **** 
 476              		.loc 1 647 0
 477              		@ sp needed
 478 0070 08BD     		pop	{r3, pc}
 479              	.L40:
 480 0072 C046     		.align	2
 481              	.L39:
 482 0074 00000000 		.word	cyBle_state
 483 0078 00000000 		.word	cyBle_eventHandlerFlag
 484 007c 00000000 		.word	.LANCHOR0
 485 0080 00000000 		.word	cyBle_advertisingIntervalType
 486              		.cfi_endproc
 487              	.LFE6:
 488              		.size	CyBle_GappStartAdvertisement, .-CyBle_GappStartAdvertisement
 489              		.section	.text.CyBle_GappStopAdvertisement,"ax",%progbits
 490              		.align	2
 491              		.global	CyBle_GappStopAdvertisement
 492              		.code	16
 493              		.thumb_func
 494              		.type	CyBle_GappStopAdvertisement, %function
 495              	CyBle_GappStopAdvertisement:
 496              	.LFB7:
 670:Generated_Source\PSoC4/BLE.c ****         CyBle_GappExitDiscoveryMode();
 497              		.loc 1 670 0
 498              		.cfi_startproc
 499 0000 08B5     		push	{r3, lr}
 500              		.cfi_def_cfa_offset 8
 501              		.cfi_offset 3, -8
 502              		.cfi_offset 14, -4
 671:Generated_Source\PSoC4/BLE.c ****         cyBle_eventHandlerFlag |= CYBLE_STOP_FLAG;
 503              		.loc 1 671 0
 504 0002 FFF7FEFF 		bl	CyBle_GappExitDiscoveryMode
 505              	.LVL50:
 672:Generated_Source\PSoC4/BLE.c ****     }
 506              		.loc 1 672 0
 507 0006 034A     		ldr	r2, .L42
 508 0008 1178     		ldrb	r1, [r2]
 509 000a 0823     		mov	r3, #8
 510 000c 0B43     		orr	r3, r1
 511 000e 1370     		strb	r3, [r2]
 673:Generated_Source\PSoC4/BLE.c ****     
 512              		.loc 1 673 0
 513              		@ sp needed
 514 0010 08BD     		pop	{r3, pc}
 515              	.L43:
 516 0012 C046     		.align	2
 517              	.L42:
 518 0014 00000000 		.word	cyBle_eventHandlerFlag
ARM GAS  C:\Users\Harsha\AppData\Local\Temp\ccBsn30u.s 			page 30


 519              		.cfi_endproc
 520              	.LFE7:
 521              		.size	CyBle_GappStopAdvertisement, .-CyBle_GappStopAdvertisement
 522              		.section	.text.CyBle_ChangeAdDeviceAddress,"ax",%progbits
 523              		.align	2
 524              		.global	CyBle_ChangeAdDeviceAddress
 525              		.code	16
 526              		.thumb_func
 527              		.type	CyBle_ChangeAdDeviceAddress, %function
 528              	CyBle_ChangeAdDeviceAddress:
 529              	.LFB8:
 692:Generated_Source\PSoC4/BLE.c ****         uint8 i;
 530              		.loc 1 692 0
 531              		.cfi_startproc
 532              	.LVL51:
 719:Generated_Source\PSoC4/BLE.c ****   
 533              		.loc 1 719 0
 534              		@ sp needed
 535 0000 7047     		bx	lr
 536              		.cfi_endproc
 537              	.LFE8:
 538              		.size	CyBle_ChangeAdDeviceAddress, .-CyBle_ChangeAdDeviceAddress
 539 0002 C046     		.section	.text.CyBle_GapSetLocalName,"ax",%progbits
 540              		.align	2
 541              		.global	CyBle_GapSetLocalName
 542              		.code	16
 543              		.thumb_func
 544              		.type	CyBle_GapSetLocalName, %function
 545              	CyBle_GapSetLocalName:
 546              	.LFB10:
1072:Generated_Source\PSoC4/BLE.c ****         
1073:Generated_Source\PSoC4/BLE.c **** #endif /* (CYBLE_GAP_ROLE_PERIPHERAL) */  
1074:Generated_Source\PSoC4/BLE.c ****     
1075:Generated_Source\PSoC4/BLE.c ****     
1076:Generated_Source\PSoC4/BLE.c ****     /******************************************************************************
1077:Generated_Source\PSoC4/BLE.c ****     * Function Name: CyBle_GapSetLocalName
1078:Generated_Source\PSoC4/BLE.c ****     ***************************************************************************//**
1079:Generated_Source\PSoC4/BLE.c ****     *  This API is used to set the local device name - a Characteristic of the 
1080:Generated_Source\PSoC4/BLE.c ****     *  GAP Service. If the characteristic length entered in the component customizer
1081:Generated_Source\PSoC4/BLE.c ****     *  is shorter than the string specified by the "name" parameter, the local device
1082:Generated_Source\PSoC4/BLE.c ****     *  name will be cut to the length specified in the customizer.
1083:Generated_Source\PSoC4/BLE.c ****     * 
1084:Generated_Source\PSoC4/BLE.c ****     *  \param char8 name: The local device name string. The name string to be written as
1085:Generated_Source\PSoC4/BLE.c ****     *              the local device name. It represents a UTF-8 encoded User
1086:Generated_Source\PSoC4/BLE.c ****     *              Friendly Descriptive Name for the device. The length of the local
1087:Generated_Source\PSoC4/BLE.c ****     *              device string is entered into the component customizer and it can
1088:Generated_Source\PSoC4/BLE.c ****     *              be set to a value from 0 to 248 bytes. If the name contained in
1089:Generated_Source\PSoC4/BLE.c ****     *              the parameter is shorter than the length from the customizer, the
1090:Generated_Source\PSoC4/BLE.c ****     *              end of the name is indicated by a NULL octet (0x00).
1091:Generated_Source\PSoC4/BLE.c ****     * 
1092:Generated_Source\PSoC4/BLE.c ****     * \return
1093:Generated_Source\PSoC4/BLE.c ****     *  CYBLE_API_RESULT_T : Return value indicates if the function succeeded or 
1094:Generated_Source\PSoC4/BLE.c ****     *  failed. Following are the possible error codes.
1095:Generated_Source\PSoC4/BLE.c ****     *
1096:Generated_Source\PSoC4/BLE.c ****     *   Errors codes                       | Description
1097:Generated_Source\PSoC4/BLE.c ****     *   ------------                       | -----------
1098:Generated_Source\PSoC4/BLE.c ****     *   CYBLE_ERROR_OK                     | Function completed successfully.
ARM GAS  C:\Users\Harsha\AppData\Local\Temp\ccBsn30u.s 			page 31


1099:Generated_Source\PSoC4/BLE.c ****     *   CYBLE_ERROR_INVALID_PARAMETER      | On specifying NULL as input parameter
1100:Generated_Source\PSoC4/BLE.c ****     *  
1101:Generated_Source\PSoC4/BLE.c ****     *******************************************************************************/
1102:Generated_Source\PSoC4/BLE.c ****     CYBLE_API_RESULT_T CyBle_GapSetLocalName(const char8 name[])
1103:Generated_Source\PSoC4/BLE.c ****     {
 547              		.loc 1 1103 0
 548              		.cfi_startproc
 549              	.LVL52:
 550 0000 10B5     		push	{r4, lr}
 551              		.cfi_def_cfa_offset 8
 552              		.cfi_offset 4, -8
 553              		.cfi_offset 14, -4
 554              	.LVL53:
1104:Generated_Source\PSoC4/BLE.c ****         CYBLE_API_RESULT_T apiResult = CYBLE_ERROR_OK;
1105:Generated_Source\PSoC4/BLE.c ****         uint8 i;
1106:Generated_Source\PSoC4/BLE.c ****         char8 *ptr;
1107:Generated_Source\PSoC4/BLE.c ****         uint8 charLen;
1108:Generated_Source\PSoC4/BLE.c **** 
1109:Generated_Source\PSoC4/BLE.c ****         if(NULL != name)
 555              		.loc 1 1109 0
 556 0002 0028     		cmp	r0, #0
 557 0004 1DD0     		beq	.L51
1110:Generated_Source\PSoC4/BLE.c ****         {
1111:Generated_Source\PSoC4/BLE.c ****             /* Get the pointer to the Device Name characteristic  */
1112:Generated_Source\PSoC4/BLE.c ****             ptr = (char8 *) CYBLE_GATT_DB_ATTR_GET_ATTR_GEN_PTR(CYBLE_GAP_DEVICE_NAME_INDEX + 1u);
 558              		.loc 1 1112 0
 559 0006 104B     		ldr	r3, .L52
 560 0008 9A6B     		ldr	r2, [r3, #56]
 561 000a 5468     		ldr	r4, [r2, #4]
 562              	.LVL54:
1113:Generated_Source\PSoC4/BLE.c **** 
1114:Generated_Source\PSoC4/BLE.c ****             /* First need to get the maximum length of the characteristic data in the GATT
1115:Generated_Source\PSoC4/BLE.c ****                 database to make sure there is enough place for the data. The length
1116:Generated_Source\PSoC4/BLE.c ****                 can't be longer than 248, so only the LSB of 16 bit of length is to
1117:Generated_Source\PSoC4/BLE.c ****                 be used. */
1118:Generated_Source\PSoC4/BLE.c ****             charLen = (uint8)CYBLE_GATT_DB_ATTR_GET_ATTR_GEN_MAX_LEN(CYBLE_GAP_DEVICE_NAME_INDEX + 
 563              		.loc 1 1118 0
 564 000c 998E     		ldrh	r1, [r3, #52]
 565 000e C9B2     		uxtb	r1, r1
 566              	.LVL55:
1119:Generated_Source\PSoC4/BLE.c **** 
1120:Generated_Source\PSoC4/BLE.c ****             /* Copy name into characteristic */
1121:Generated_Source\PSoC4/BLE.c ****             for(i = 0u; ((i < charLen) && (CYBLE_NULL_CHARCTER != name[i])); i++)
 567              		.loc 1 1121 0
 568 0010 0023     		mov	r3, #0
 569 0012 02E0     		b	.L47
 570              	.LVL56:
 571              	.L49:
1122:Generated_Source\PSoC4/BLE.c ****             {
1123:Generated_Source\PSoC4/BLE.c ****                 ptr[i] = name[i];
 572              		.loc 1 1123 0 discriminator 4
 573 0014 E254     		strb	r2, [r4, r3]
1121:Generated_Source\PSoC4/BLE.c ****             {
 574              		.loc 1 1121 0 discriminator 4
 575 0016 0133     		add	r3, r3, #1
 576              	.LVL57:
 577 0018 DBB2     		uxtb	r3, r3
ARM GAS  C:\Users\Harsha\AppData\Local\Temp\ccBsn30u.s 			page 32


 578              	.LVL58:
 579              	.L47:
1121:Generated_Source\PSoC4/BLE.c ****             {
 580              		.loc 1 1121 0 is_stmt 0 discriminator 1
 581 001a 8B42     		cmp	r3, r1
 582 001c 02D2     		bcs	.L48
1121:Generated_Source\PSoC4/BLE.c ****             {
 583              		.loc 1 1121 0 discriminator 3
 584 001e C25C     		ldrb	r2, [r0, r3]
 585 0020 002A     		cmp	r2, #0
 586 0022 F7D1     		bne	.L49
 587              	.L48:
1124:Generated_Source\PSoC4/BLE.c ****             }
1125:Generated_Source\PSoC4/BLE.c **** 
1126:Generated_Source\PSoC4/BLE.c ****             if(i < charLen)
 588              		.loc 1 1126 0 is_stmt 1
 589 0024 8B42     		cmp	r3, r1
 590 0026 02D2     		bcs	.L50
1127:Generated_Source\PSoC4/BLE.c ****             {
1128:Generated_Source\PSoC4/BLE.c ****                 /* Terminate string */
1129:Generated_Source\PSoC4/BLE.c ****                 ptr[i] = CYBLE_NULL_CHARCTER;
 591              		.loc 1 1129 0
 592 0028 E318     		add	r3, r4, r3
 593              	.LVL59:
 594 002a 0022     		mov	r2, #0
 595 002c 1A70     		strb	r2, [r3]
 596              	.L50:
 597 002e 041C     		mov	r4, r0
 598              	.LVL60:
1130:Generated_Source\PSoC4/BLE.c ****             }
1131:Generated_Source\PSoC4/BLE.c ****             
1132:Generated_Source\PSoC4/BLE.c ****             /* Set new actual length */
1133:Generated_Source\PSoC4/BLE.c ****             
1134:Generated_Source\PSoC4/BLE.c ****             /* Update device name in advertising and scan response structure */
1135:Generated_Source\PSoC4/BLE.c ****             #if(CYBLE_GAP_ROLE_PERIPHERAL)
1136:Generated_Source\PSoC4/BLE.c ****                 CyBle_ChangeAdLocalName(name, 0u);
 599              		.loc 1 1136 0
 600 0030 0021     		mov	r1, #0
 601              	.LVL61:
 602 0032 FFF7FEFF 		bl	CyBle_ChangeAdLocalName
 603              	.LVL62:
1137:Generated_Source\PSoC4/BLE.c ****                 CyBle_ChangeAdLocalName(name, 1u);
 604              		.loc 1 1137 0
 605 0036 201C     		mov	r0, r4
 606 0038 0121     		mov	r1, #1
 607 003a FFF7FEFF 		bl	CyBle_ChangeAdLocalName
 608              	.LVL63:
1104:Generated_Source\PSoC4/BLE.c ****         uint8 i;
 609              		.loc 1 1104 0
 610 003e 0020     		mov	r0, #0
 611 0040 00E0     		b	.L46
 612              	.LVL64:
 613              	.L51:
1138:Generated_Source\PSoC4/BLE.c ****             #endif /* (CYBLE_GAP_ROLE_PERIPHERAL) */
1139:Generated_Source\PSoC4/BLE.c ****         }
1140:Generated_Source\PSoC4/BLE.c ****         else
1141:Generated_Source\PSoC4/BLE.c ****         {
ARM GAS  C:\Users\Harsha\AppData\Local\Temp\ccBsn30u.s 			page 33


1142:Generated_Source\PSoC4/BLE.c ****             apiResult = CYBLE_ERROR_INVALID_PARAMETER;
 614              		.loc 1 1142 0
 615 0042 0120     		mov	r0, #1
 616              	.LVL65:
 617              	.L46:
1143:Generated_Source\PSoC4/BLE.c ****         }
1144:Generated_Source\PSoC4/BLE.c ****         
1145:Generated_Source\PSoC4/BLE.c ****         return(apiResult);
1146:Generated_Source\PSoC4/BLE.c ****     }
 618              		.loc 1 1146 0
 619              		@ sp needed
 620 0044 10BD     		pop	{r4, pc}
 621              	.L53:
 622 0046 C046     		.align	2
 623              	.L52:
 624 0048 00000000 		.word	cyBle_gattDB
 625              		.cfi_endproc
 626              	.LFE10:
 627              		.size	CyBle_GapSetLocalName, .-CyBle_GapSetLocalName
 628              		.section	.text.CyBle_GapGetLocalName,"ax",%progbits
 629              		.align	2
 630              		.global	CyBle_GapGetLocalName
 631              		.code	16
 632              		.thumb_func
 633              		.type	CyBle_GapGetLocalName, %function
 634              	CyBle_GapGetLocalName:
 635              	.LFB11:
1147:Generated_Source\PSoC4/BLE.c **** 
1148:Generated_Source\PSoC4/BLE.c **** 
1149:Generated_Source\PSoC4/BLE.c ****     /******************************************************************************
1150:Generated_Source\PSoC4/BLE.c ****     * Function Name: CyBle_GapGetLocalName
1151:Generated_Source\PSoC4/BLE.c ****     ***************************************************************************//**
1152:Generated_Source\PSoC4/BLE.c ****     *  
1153:Generated_Source\PSoC4/BLE.c ****     *  This API is used to read the local device name - a Characteristic of the 
1154:Generated_Source\PSoC4/BLE.c ****     *  GAP Service.
1155:Generated_Source\PSoC4/BLE.c ****     * 
1156:Generated_Source\PSoC4/BLE.c ****     * \param char8 name: The local device name string. Used to read the local name to the
1157:Generated_Source\PSoC4/BLE.c ****     *             given string array. It represents a UTF-8 encoded User Friendly 
1158:Generated_Source\PSoC4/BLE.c ****     *             Descriptive Name for the device. The length of the local device
1159:Generated_Source\PSoC4/BLE.c ****     *             string is entered into the component customizer and it can be set
1160:Generated_Source\PSoC4/BLE.c ****     *             to a value from 0 to 248 bytes. If the name contained in the
1161:Generated_Source\PSoC4/BLE.c ****     *             parameter is shorter than the length from the customizer, the end
1162:Generated_Source\PSoC4/BLE.c ****     *             of the name is indicated by a NULL octet (0x00).
1163:Generated_Source\PSoC4/BLE.c ****     * 
1164:Generated_Source\PSoC4/BLE.c ****     * \return
1165:Generated_Source\PSoC4/BLE.c ****     *  CYBLE_API_RESULT_T : Return value indicates if the function succeeded or 
1166:Generated_Source\PSoC4/BLE.c ****     *  failed. Following are the possible error codes.
1167:Generated_Source\PSoC4/BLE.c ****     *
1168:Generated_Source\PSoC4/BLE.c ****     *   Errors codes                       | Description
1169:Generated_Source\PSoC4/BLE.c ****     *   ------------                       | -----------
1170:Generated_Source\PSoC4/BLE.c ****     *   CYBLE_ERROR_OK                     | Function completed successfully.
1171:Generated_Source\PSoC4/BLE.c ****     *   CYBLE_ERROR_INVALID_PARAMETER      | On specifying NULL as input parameter
1172:Generated_Source\PSoC4/BLE.c ****     *
1173:Generated_Source\PSoC4/BLE.c ****     *******************************************************************************/
1174:Generated_Source\PSoC4/BLE.c ****     CYBLE_API_RESULT_T CyBle_GapGetLocalName(char8 name[])
1175:Generated_Source\PSoC4/BLE.c ****     {
 636              		.loc 1 1175 0
ARM GAS  C:\Users\Harsha\AppData\Local\Temp\ccBsn30u.s 			page 34


 637              		.cfi_startproc
 638              	.LVL66:
 639 0000 10B5     		push	{r4, lr}
 640              		.cfi_def_cfa_offset 8
 641              		.cfi_offset 4, -8
 642              		.cfi_offset 14, -4
 643              	.LVL67:
1176:Generated_Source\PSoC4/BLE.c ****         CYBLE_API_RESULT_T apiResult = CYBLE_ERROR_OK;
1177:Generated_Source\PSoC4/BLE.c ****         uint8 charLen;
1178:Generated_Source\PSoC4/BLE.c ****         uint8 i;
1179:Generated_Source\PSoC4/BLE.c ****         char8 *ptr;
1180:Generated_Source\PSoC4/BLE.c **** 
1181:Generated_Source\PSoC4/BLE.c ****         if(NULL != name)
 644              		.loc 1 1181 0
 645 0002 0028     		cmp	r0, #0
 646 0004 12D0     		beq	.L59
1182:Generated_Source\PSoC4/BLE.c ****         {
1183:Generated_Source\PSoC4/BLE.c ****             /* Get the pointer to the Device Name characteristic  */
1184:Generated_Source\PSoC4/BLE.c ****             ptr = (char8 *) CYBLE_GATT_DB_ATTR_GET_ATTR_GEN_PTR(CYBLE_GAP_DEVICE_NAME_INDEX + 1u);
 647              		.loc 1 1184 0
 648 0006 0A4B     		ldr	r3, .L60
 649 0008 9B6B     		ldr	r3, [r3, #56]
 650 000a 5C68     		ldr	r4, [r3, #4]
 651              	.LVL68:
1185:Generated_Source\PSoC4/BLE.c **** 
1186:Generated_Source\PSoC4/BLE.c ****             /* First need to get the length of the characteristic data in the GATT
1187:Generated_Source\PSoC4/BLE.c ****                 database to make sure there is enough place for the data. The length
1188:Generated_Source\PSoC4/BLE.c ****                 can't be longer than 248, so only the LSB of 16 bit of length is to
1189:Generated_Source\PSoC4/BLE.c ****                 be used. */
1190:Generated_Source\PSoC4/BLE.c ****             charLen = (uint8)CYBLE_GATT_DB_ATTR_GET_ATTR_GEN_LEN(CYBLE_GAP_DEVICE_NAME_INDEX + 1u);
 652              		.loc 1 1190 0
 653 000c 1978     		ldrb	r1, [r3]
 654              	.LVL69:
1191:Generated_Source\PSoC4/BLE.c **** 
1192:Generated_Source\PSoC4/BLE.c ****             /* Copy name from characteristic */
1193:Generated_Source\PSoC4/BLE.c ****             for(i = 0u; ((i < charLen) && (CYBLE_NULL_CHARCTER != ptr[i])); i++)
 655              		.loc 1 1193 0
 656 000e 0023     		mov	r3, #0
 657 0010 02E0     		b	.L56
 658              	.LVL70:
 659              	.L58:
1194:Generated_Source\PSoC4/BLE.c ****             {
1195:Generated_Source\PSoC4/BLE.c ****                 name[i] = ptr[i];
 660              		.loc 1 1195 0 discriminator 4
 661 0012 C254     		strb	r2, [r0, r3]
1193:Generated_Source\PSoC4/BLE.c ****             {
 662              		.loc 1 1193 0 discriminator 4
 663 0014 0133     		add	r3, r3, #1
 664              	.LVL71:
 665 0016 DBB2     		uxtb	r3, r3
 666              	.LVL72:
 667              	.L56:
1193:Generated_Source\PSoC4/BLE.c ****             {
 668              		.loc 1 1193 0 is_stmt 0 discriminator 1
 669 0018 8B42     		cmp	r3, r1
 670 001a 02D2     		bcs	.L57
1193:Generated_Source\PSoC4/BLE.c ****             {
ARM GAS  C:\Users\Harsha\AppData\Local\Temp\ccBsn30u.s 			page 35


 671              		.loc 1 1193 0 discriminator 3
 672 001c E25C     		ldrb	r2, [r4, r3]
 673 001e 002A     		cmp	r2, #0
 674 0020 F7D1     		bne	.L58
 675              	.L57:
1196:Generated_Source\PSoC4/BLE.c ****             }
1197:Generated_Source\PSoC4/BLE.c **** 
1198:Generated_Source\PSoC4/BLE.c ****             /* Terminate string */
1199:Generated_Source\PSoC4/BLE.c ****             name[i] = CYBLE_NULL_CHARCTER;
 676              		.loc 1 1199 0 is_stmt 1
 677 0022 C318     		add	r3, r0, r3
 678              	.LVL73:
 679 0024 0022     		mov	r2, #0
 680 0026 1A70     		strb	r2, [r3]
1176:Generated_Source\PSoC4/BLE.c ****         uint8 charLen;
 681              		.loc 1 1176 0
 682 0028 0020     		mov	r0, #0
 683              	.LVL74:
 684 002a 00E0     		b	.L55
 685              	.LVL75:
 686              	.L59:
1200:Generated_Source\PSoC4/BLE.c ****         }
1201:Generated_Source\PSoC4/BLE.c ****         else
1202:Generated_Source\PSoC4/BLE.c ****         {
1203:Generated_Source\PSoC4/BLE.c ****             apiResult = CYBLE_ERROR_INVALID_PARAMETER;
 687              		.loc 1 1203 0
 688 002c 0120     		mov	r0, #1
 689              	.LVL76:
 690              	.L55:
1204:Generated_Source\PSoC4/BLE.c ****         }
1205:Generated_Source\PSoC4/BLE.c ****         
1206:Generated_Source\PSoC4/BLE.c ****         return(apiResult);
1207:Generated_Source\PSoC4/BLE.c ****     }
 691              		.loc 1 1207 0
 692              		@ sp needed
 693 002e 10BD     		pop	{r4, pc}
 694              	.L61:
 695              		.align	2
 696              	.L60:
 697 0030 00000000 		.word	cyBle_gattDB
 698              		.cfi_endproc
 699              	.LFE11:
 700              		.size	CyBle_GapGetLocalName, .-CyBle_GapGetLocalName
 701              		.section	.text.CyBle_Get16ByPtr,"ax",%progbits
 702              		.align	2
 703              		.global	CyBle_Get16ByPtr
 704              		.code	16
 705              		.thumb_func
 706              		.type	CyBle_Get16ByPtr, %function
 707              	CyBle_Get16ByPtr:
 708              	.LFB12:
1208:Generated_Source\PSoC4/BLE.c **** 
1209:Generated_Source\PSoC4/BLE.c **** #endif /* (CYBLE_GATT_ROLE_SERVER) */
1210:Generated_Source\PSoC4/BLE.c **** 
1211:Generated_Source\PSoC4/BLE.c **** 
1212:Generated_Source\PSoC4/BLE.c **** /******************************************************************************
1213:Generated_Source\PSoC4/BLE.c **** * Function Name: CyBle_Get16ByPtr
ARM GAS  C:\Users\Harsha\AppData\Local\Temp\ccBsn30u.s 			page 36


1214:Generated_Source\PSoC4/BLE.c **** ***************************************************************************//**
1215:Generated_Source\PSoC4/BLE.c **** * 
1216:Generated_Source\PSoC4/BLE.c **** *  Returns the two-bytes value by using a pointer to the LSB.
1217:Generated_Source\PSoC4/BLE.c **** * 
1218:Generated_Source\PSoC4/BLE.c **** *  \param uint8 * ptr: Pointer to the LSB of two-bytes data (little endian).
1219:Generated_Source\PSoC4/BLE.c **** * 
1220:Generated_Source\PSoC4/BLE.c **** *  \return
1221:Generated_Source\PSoC4/BLE.c **** *  uint16 value: Two-bytes data.
1222:Generated_Source\PSoC4/BLE.c **** * 
1223:Generated_Source\PSoC4/BLE.c **** ******************************************************************************/
1224:Generated_Source\PSoC4/BLE.c **** uint16 CyBle_Get16ByPtr(const uint8 ptr[])
1225:Generated_Source\PSoC4/BLE.c **** {
 709              		.loc 1 1225 0
 710              		.cfi_startproc
 711              	.LVL77:
1226:Generated_Source\PSoC4/BLE.c ****     return ((uint16) ptr[0u] | ((uint16) (((uint16) ptr[1u]) << 8u)));
 712              		.loc 1 1226 0
 713 0000 0378     		ldrb	r3, [r0]
 714 0002 4078     		ldrb	r0, [r0, #1]
 715              	.LVL78:
 716 0004 0002     		lsl	r0, r0, #8
 717 0006 1843     		orr	r0, r3
1227:Generated_Source\PSoC4/BLE.c **** }
 718              		.loc 1 1227 0
 719              		@ sp needed
 720 0008 7047     		bx	lr
 721              		.cfi_endproc
 722              	.LFE12:
 723              		.size	CyBle_Get16ByPtr, .-CyBle_Get16ByPtr
 724 000a C046     		.section	.text.CyBle_Set16ByPtr,"ax",%progbits
 725              		.align	2
 726              		.global	CyBle_Set16ByPtr
 727              		.code	16
 728              		.thumb_func
 729              		.type	CyBle_Set16ByPtr, %function
 730              	CyBle_Set16ByPtr:
 731              	.LFB13:
1228:Generated_Source\PSoC4/BLE.c **** 
1229:Generated_Source\PSoC4/BLE.c **** 
1230:Generated_Source\PSoC4/BLE.c **** /******************************************************************************
1231:Generated_Source\PSoC4/BLE.c **** * Function Name: CyBle_Set16ByPtr
1232:Generated_Source\PSoC4/BLE.c **** ***************************************************************************//**
1233:Generated_Source\PSoC4/BLE.c **** * 
1234:Generated_Source\PSoC4/BLE.c **** *  Sets the two-bytes value by using a pointer to the LSB.
1235:Generated_Source\PSoC4/BLE.c **** * 
1236:Generated_Source\PSoC4/BLE.c **** *  \param uint8 * ptr:   Pointer to the LSB of two-bytes data (little endian).
1237:Generated_Source\PSoC4/BLE.c **** *  \param uint16 value:  Two-bytes data to be written.
1238:Generated_Source\PSoC4/BLE.c **** * 
1239:Generated_Source\PSoC4/BLE.c **** *  \return
1240:Generated_Source\PSoC4/BLE.c **** *  None
1241:Generated_Source\PSoC4/BLE.c **** * 
1242:Generated_Source\PSoC4/BLE.c **** ******************************************************************************/
1243:Generated_Source\PSoC4/BLE.c **** void CyBle_Set16ByPtr(uint8 ptr[], uint16 value)
1244:Generated_Source\PSoC4/BLE.c **** {
 732              		.loc 1 1244 0
 733              		.cfi_startproc
 734              	.LVL79:
ARM GAS  C:\Users\Harsha\AppData\Local\Temp\ccBsn30u.s 			page 37


1245:Generated_Source\PSoC4/BLE.c ****     ptr[0u] = (uint8) value;
 735              		.loc 1 1245 0
 736 0000 0170     		strb	r1, [r0]
1246:Generated_Source\PSoC4/BLE.c ****     ptr[1u] = (uint8) (value >> 8u);
 737              		.loc 1 1246 0
 738 0002 090A     		lsr	r1, r1, #8
 739              	.LVL80:
 740 0004 4170     		strb	r1, [r0, #1]
1247:Generated_Source\PSoC4/BLE.c **** }
 741              		.loc 1 1247 0
 742              		@ sp needed
 743 0006 7047     		bx	lr
 744              		.cfi_endproc
 745              	.LFE13:
 746              		.size	CyBle_Set16ByPtr, .-CyBle_Set16ByPtr
 747              		.global	cyBle_StackFlashptr
 748              		.global	cyBle_sflashDeviceAddress
 749              		.global	cyBle_deviceAddress
 750              		.comm	CyBle_ApplCallback,4,4
 751              		.global	cyBle_discoveryModeInfo
 752              		.global	cyBle_scanRspData
 753              		.global	cyBle_discoveryData
 754              		.global	cyBle_discoveryParam
 755              		.comm	cyBle_stackMemoryRam,2756,8
 756              		.global	cyBle_initVar
 757              		.section	.rodata
 758              		.align	7
 759              		.set	.LANCHOR2,. + 0
 760              	.LC0:
 761 0000 2400     		.short	36
 762 0002 03       		.byte	3
 763 0003 00       		.space	1
 764 0004 1800     		.short	24
 765 0006 01       		.byte	1
 766 0007 00       		.space	1
 767 0008 3000     		.short	48
 768 000a 01       		.byte	1
 769 000b 00       		.space	1
 770 000c 4800     		.short	72
 771 000e 01       		.byte	1
 772 000f 00       		.space	1
 773 0010 2400     		.short	36
 774 0012 01       		.byte	1
 775 0013 00       		.space	1
 776 0014 2400     		.short	36
 777 0016 01       		.byte	1
 778 0017 00       		.space	1
 779 0018 00000000 		.space	104
 779      00000000 
 779      00000000 
 779      00000000 
 779      00000000 
 780              		.type	cyBle_StackFlashptr, %object
 781              		.size	cyBle_StackFlashptr, 365
 782              	cyBle_StackFlashptr:
 783 0080 00000000 		.space	365
 783      00000000 
ARM GAS  C:\Users\Harsha\AppData\Local\Temp\ccBsn30u.s 			page 38


 783      00000000 
 783      00000000 
 783      00000000 
 784 01ed 00000000 		.data
 784      00000000 
 784      00000000 
 784      00000000 
 784      000000
 785              		.align	2
 786              		.set	.LANCHOR0,. + 0
 787              		.type	cyBle_discoveryData, %object
 788              		.size	cyBle_discoveryData, 32
 789              	cyBle_discoveryData:
 790 0000 02       		.byte	2
 791 0001 01       		.byte	1
 792 0002 06       		.byte	6
 793 0003 0B       		.byte	11
 794 0004 09       		.byte	9
 795 0005 53       		.byte	83
 796 0006 65       		.byte	101
 797 0007 72       		.byte	114
 798 0008 76       		.byte	118
 799 0009 65       		.byte	101
 800 000a 72       		.byte	114
 801 000b 20       		.byte	32
 802 000c 42       		.byte	66
 803 000d 4C       		.byte	76
 804 000e 45       		.byte	69
 805 000f 00       		.byte	0
 806 0010 00       		.byte	0
 807 0011 00       		.byte	0
 808 0012 00       		.byte	0
 809 0013 00       		.byte	0
 810 0014 00       		.byte	0
 811 0015 00       		.byte	0
 812 0016 00       		.byte	0
 813 0017 00       		.byte	0
 814 0018 00       		.byte	0
 815 0019 00       		.byte	0
 816 001a 00       		.byte	0
 817 001b 00       		.byte	0
 818 001c 00       		.byte	0
 819 001d 00       		.byte	0
 820 001e 00       		.byte	0
 821 001f 0F       		.byte	15
 822              		.type	cyBle_discoveryModeInfo, %object
 823              		.size	cyBle_discoveryModeInfo, 20
 824              	cyBle_discoveryModeInfo:
 825 0020 02       		.byte	2
 826 0021 000000   		.space	3
 827 0024 00000000 		.word	cyBle_discoveryParam
 828 0028 00000000 		.word	cyBle_discoveryData
 829 002c 00000000 		.word	cyBle_scanRspData
 830 0030 0000     		.short	0
 831 0032 0000     		.space	2
 832              		.type	cyBle_sflashDeviceAddress, %object
 833              		.size	cyBle_sflashDeviceAddress, 4
ARM GAS  C:\Users\Harsha\AppData\Local\Temp\ccBsn30u.s 			page 39


 834              	cyBle_sflashDeviceAddress:
 835 0034 00F2FF0F 		.word	268431872
 836              		.type	cyBle_deviceAddress, %object
 837              		.size	cyBle_deviceAddress, 7
 838              	cyBle_deviceAddress:
 839 0038 00       		.byte	0
 840 0039 00       		.byte	0
 841 003a 00       		.byte	0
 842 003b 50       		.byte	80
 843 003c A0       		.byte	-96
 844 003d 00       		.byte	0
 845 003e 00       		.byte	0
 846 003f 00       		.space	1
 847              		.type	cyBle_discoveryParam, %object
 848              		.size	cyBle_discoveryParam, 16
 849              	cyBle_discoveryParam:
 850 0040 2000     		.short	32
 851 0042 2000     		.short	32
 852 0044 00       		.byte	0
 853 0045 00       		.byte	0
 854 0046 00       		.byte	0
 855 0047 00       		.byte	0
 856 0048 00       		.byte	0
 857 0049 00       		.byte	0
 858 004a 50       		.byte	80
 859 004b A0       		.byte	-96
 860 004c 00       		.byte	0
 861 004d 07       		.byte	7
 862 004e 00       		.byte	0
 863 004f 00       		.space	1
 864              		.bss
 865              		.align	2
 866              		.set	.LANCHOR1,. + 0
 867              		.type	cyBle_scanRspData, %object
 868              		.size	cyBle_scanRspData, 32
 869              	cyBle_scanRspData:
 870 0000 00000000 		.space	32
 870      00000000 
 870      00000000 
 870      00000000 
 870      00000000 
 871              		.type	cyBle_initVar, %object
 872              		.size	cyBle_initVar, 1
 873              	cyBle_initVar:
 874 0020 00       		.space	1
 875 0021 000000   		.text
 876              	.Letext0:
 877              		.file 2 "Generated_Source\\PSoC4\\cytypes.h"
 878              		.file 3 "Generated_Source\\PSoC4\\BLE_Stack.h"
 879              		.file 4 "Generated_Source\\PSoC4\\BLE_StackGap.h"
 880              		.file 5 "Generated_Source\\PSoC4\\BLE_StackGatt.h"
 881              		.file 6 "Generated_Source\\PSoC4\\BLE_StackGattDb.h"
 882              		.file 7 "Generated_Source\\PSoC4\\BLE.h"
 883              		.file 8 "Generated_Source\\PSoC4\\BLE_gatt.h"
 884              		.file 9 "Generated_Source\\PSoC4\\BLE_eventHandler.h"
 885              		.file 10 "Generated_Source\\PSoC4\\BLE_custom.h"