ARM GAS  C:\Users\Harsha\AppData\Local\Temp\ccVXbgTU.s 			page 1


   1              		.cpu cortex-m0
   2              		.fpu softvfp
   3              		.eabi_attribute 20, 1
   4              		.eabi_attribute 21, 1
   5              		.eabi_attribute 23, 3
   6              		.eabi_attribute 24, 1
   7              		.eabi_attribute 25, 1
   8              		.eabi_attribute 26, 1
   9              		.eabi_attribute 30, 1
  10              		.eabi_attribute 34, 0
  11              		.eabi_attribute 18, 4
  12              		.code	16
  13              		.file	"main.c"
  14              		.text
  15              	.Ltext0:
  16              		.cfi_sections	.debug_frame
  17              		.section	.text.updateGATTDB,"ax",%progbits
  18              		.align	2
  19              		.global	updateGATTDB
  20              		.code	16
  21              		.thumb_func
  22              		.type	updateGATTDB, %function
  23              	updateGATTDB:
  24              	.LFB35:
  25              		.file 1 "main.c"
   1:main.c        **** /* ================================================================================================
   2:main.c        ****  *
   3:main.c        ****  * Name: Server BLE
   4:main.c        ****  * Description: This is a simple program to illiustrate the 2-way communication
   5:main.c        ****  *              between the server and client in Bluetooth.
   6:main.c        ****  *              Server reads the data from client as well as Client reads the data
   7:main.c        ****  *              from the server. When you press the button in server, LED of client
   8:main.c        ****                 will be flashed, Similarly when you press the button in client side
   9:main.c        ****                 LED of server will be flashed. Server counts the number of button presses
  10:main.c        ****                 based on that corresponding LEDS will be on in client side. In client side
  11:main.c        ****                 it is just On and Off. Each time you press button in client, LED will On of OFF
  12:main.c        ****                 in server.
  13:main.c        ****                 0 -> Red low, Green low, Blue low
  14:main.c        ****                 1 -> Red low, Green low, Blue high
  15:main.c        ****                 2 -> Red low, Green high, Blue low
  16:main.c        ****                 3 -> Red low, Green high, Blue high
  17:main.c        ****                 4 -> Red high, Green low, Blue low
  18:main.c        ****                 5 -> Red high, Green low, Blue high
  19:main.c        ****                 6 -> Red high, Green high, Blue low
  20:main.c        ****                 7 -> Red high, Green high, Blue high
  21:main.c        ****  *
  22:main.c        ****  * ================================================================================================
  23:main.c        **** */
  24:main.c        **** 
  25:main.c        **** #include<main.h>
  26:main.c        **** 
  27:main.c        **** /* 'connHandle' is a variable of type 'CYBLE_CONN_HANDLE_T' (defined in 
  28:main.c        **** * BLE_StackGatt.h) and is used to store the connection handle parameters after
  29:main.c        **** * connecting with the device. */
  30:main.c        **** CYBLE_CONN_HANDLE_T			connHandle;
  31:main.c        **** 
  32:main.c        **** //This is my counter to count the number of times button is pressed in this device.
ARM GAS  C:\Users\Harsha\AppData\Local\Temp\ccVXbgTU.s 			page 2


  33:main.c        **** int nCounter = 0;
  34:main.c        **** //This is the value which will be recieved from client end
  35:main.c        **** uint8 onOff = 0;
  36:main.c        **** //This is the datastructure used to recieved the data which was sent by client.
  37:main.c        **** union ClientBytes recievedData;
  38:main.c        **** 
  39:main.c        **** //This flag will indicate whether client is connected or not.
  40:main.c        **** int deviceConnected = FALSE;
  41:main.c        **** 
  42:main.c        **** /*
  43:main.c        **** Name: updateGATTDB
  44:main.c        **** Description: This function will update Server's GATTDB so that client can read the values
  45:main.c        ****              Here I am converting my counter value to RGB value and storing as 3 byte array
  46:main.c        ****              in server's GATT DB. Whenever client do a read on server, the values in GATTDB
  47:main.c        ****              will be sent to client.
  48:main.c        **** Parameters: counter - Number of times button has been pressed or value to be sent to client
  49:main.c        **** Return: - 
  50:main.c        **** */
  51:main.c        **** void updateGATTDB(int counter)
  52:main.c        **** {
  26              		.loc 1 52 0
  27              		.cfi_startproc
  28              	.LVL0:
  29 0000 00B5     		push	{lr}
  30              		.cfi_def_cfa_offset 4
  31              		.cfi_offset 14, -4
  32 0002 85B0     		sub	sp, sp, #20
  33              		.cfi_def_cfa_offset 24
  34              	.LVL1:
  53:main.c        ****     CYBLE_GATT_HANDLE_VALUE_PAIR_T		TransmitDataHandle; //This describes the data to be sent to cli
  54:main.c        ****        
  55:main.c        ****     union ServerBytes ExampleData;      //This is the data to be stored in DB
  56:main.c        ****     uint8 red= LOW;    
  57:main.c        ****     uint8 green = LOW;
  58:main.c        ****     uint8 blue = LOW;
  59:main.c        ****     
  60:main.c        ****     //This switch converts my counter to a 3 byte value for the RGB LED light
  61:main.c        ****     switch(counter)
  35              		.loc 1 61 0
  36 0004 0728     		cmp	r0, #7
  37 0006 03D8     		bhi	.L2
  38 0008 8000     		lsl	r0, r0, #2
  39              	.LVL2:
  40 000a 1B4B     		ldr	r3, .L12
  41 000c 1B58     		ldr	r3, [r3, r0]
  42 000e 9F46     		mov	pc, r3
  43              		.section	.rodata
  44              		.align	2
  45              	.L4:
  46 0000 10000000 		.word	.L2
  47 0004 48000000 		.word	.L11
  48 0008 18000000 		.word	.L5
  49 000c 20000000 		.word	.L6
  50 0010 28000000 		.word	.L7
  51 0014 30000000 		.word	.L8
  52 0018 38000000 		.word	.L9
  53 001c 40000000 		.word	.L10
ARM GAS  C:\Users\Harsha\AppData\Local\Temp\ccVXbgTU.s 			page 3


  54              		.section	.text.updateGATTDB
  55              	.L2:
  58:main.c        ****     
  56              		.loc 1 58 0
  57 0010 0123     		mov	r3, #1
  57:main.c        ****     uint8 blue = LOW;
  58              		.loc 1 57 0
  59 0012 0122     		mov	r2, #1
  56:main.c        ****     uint8 green = LOW;
  60              		.loc 1 56 0
  61 0014 0121     		mov	r1, #1
  62 0016 1AE0     		b	.L3
  63              	.L5:
  64              	.LVL3:
  62:main.c        ****     {
  63:main.c        ****         case 0:
  64:main.c        ****                 {
  65:main.c        ****                     red = green = blue = LOW;
  66:main.c        ****                     break;
  67:main.c        ****                 }
  68:main.c        ****         case 1:
  69:main.c        ****                 {
  70:main.c        ****                     red = green = LOW;
  71:main.c        ****                     blue = HIGH;
  72:main.c        ****                     break;
  73:main.c        ****                 }
  74:main.c        ****         case 2:
  75:main.c        ****                 {
  76:main.c        ****                     red = LOW;
  77:main.c        ****                     green = HIGH;
  78:main.c        ****                     blue = LOW;
  65              		.loc 1 78 0
  66 0018 0123     		mov	r3, #1
  77:main.c        ****                     blue = LOW;
  67              		.loc 1 77 0
  68 001a 0022     		mov	r2, #0
  76:main.c        ****                     green = HIGH;
  69              		.loc 1 76 0
  70 001c 0121     		mov	r1, #1
  79:main.c        ****                     break;
  71              		.loc 1 79 0
  72 001e 16E0     		b	.L3
  73              	.LVL4:
  74              	.L6:
  80:main.c        ****                 }
  81:main.c        ****         case 3:
  82:main.c        ****                 {
  83:main.c        ****                     red = LOW;
  84:main.c        ****                     green = HIGH;
  85:main.c        ****                     blue = HIGH;
  75              		.loc 1 85 0
  76 0020 0023     		mov	r3, #0
  84:main.c        ****                     blue = HIGH;
  77              		.loc 1 84 0
  78 0022 0022     		mov	r2, #0
  83:main.c        ****                     green = HIGH;
  79              		.loc 1 83 0
ARM GAS  C:\Users\Harsha\AppData\Local\Temp\ccVXbgTU.s 			page 4


  80 0024 0121     		mov	r1, #1
  86:main.c        ****                     break;
  81              		.loc 1 86 0
  82 0026 12E0     		b	.L3
  83              	.LVL5:
  84              	.L7:
  87:main.c        ****                 }
  88:main.c        ****         case 4:
  89:main.c        ****                 {
  90:main.c        ****                     red = HIGH;
  91:main.c        ****                     green = LOW;
  92:main.c        ****                     blue = LOW;
  85              		.loc 1 92 0
  86 0028 0123     		mov	r3, #1
  91:main.c        ****                     blue = LOW;
  87              		.loc 1 91 0
  88 002a 0122     		mov	r2, #1
  90:main.c        ****                     green = LOW;
  89              		.loc 1 90 0
  90 002c 0021     		mov	r1, #0
  93:main.c        ****                     break;
  91              		.loc 1 93 0
  92 002e 0EE0     		b	.L3
  93              	.LVL6:
  94              	.L8:
  94:main.c        ****                 }
  95:main.c        ****         case 5:
  96:main.c        ****                 {
  97:main.c        ****                     red = HIGH;
  98:main.c        ****                     green = LOW;
  99:main.c        ****                     blue = HIGH;
  95              		.loc 1 99 0
  96 0030 0023     		mov	r3, #0
  98:main.c        ****                     blue = HIGH;
  97              		.loc 1 98 0
  98 0032 0122     		mov	r2, #1
  97:main.c        ****                     green = LOW;
  99              		.loc 1 97 0
 100 0034 0021     		mov	r1, #0
 100:main.c        ****                     break;
 101              		.loc 1 100 0
 102 0036 0AE0     		b	.L3
 103              	.LVL7:
 104              	.L9:
 101:main.c        ****                 }
 102:main.c        ****         case 6:
 103:main.c        ****                 {
 104:main.c        ****                     red = HIGH;
 105:main.c        ****                     green = HIGH;
 106:main.c        ****                     blue = LOW;
 105              		.loc 1 106 0
 106 0038 0123     		mov	r3, #1
 105:main.c        ****                     blue = LOW;
 107              		.loc 1 105 0
 108 003a 0022     		mov	r2, #0
 104:main.c        ****                     green = HIGH;
 109              		.loc 1 104 0
ARM GAS  C:\Users\Harsha\AppData\Local\Temp\ccVXbgTU.s 			page 5


 110 003c 0021     		mov	r1, #0
 107:main.c        ****                     break;
 111              		.loc 1 107 0
 112 003e 06E0     		b	.L3
 113              	.LVL8:
 114              	.L10:
 108:main.c        ****                 }
 109:main.c        ****         case 7:
 110:main.c        ****                 {
 111:main.c        ****                     red = HIGH;
 112:main.c        ****                     green = HIGH;
 113:main.c        ****                     blue = HIGH;
 115              		.loc 1 113 0
 116 0040 0023     		mov	r3, #0
 112:main.c        ****                     blue = HIGH;
 117              		.loc 1 112 0
 118 0042 0022     		mov	r2, #0
 111:main.c        ****                     green = HIGH;
 119              		.loc 1 111 0
 120 0044 0021     		mov	r1, #0
 114:main.c        ****                     break;
 121              		.loc 1 114 0
 122 0046 02E0     		b	.L3
 123              	.LVL9:
 124              	.L11:
  71:main.c        ****                     break;
 125              		.loc 1 71 0
 126 0048 0023     		mov	r3, #0
  70:main.c        ****                     blue = HIGH;
 127              		.loc 1 70 0
 128 004a 0122     		mov	r2, #1
 129 004c 0121     		mov	r1, #1
 130              	.LVL10:
 131              	.L3:
 115:main.c        ****                 }
 116:main.c        ****     }
 117:main.c        ****     
 118:main.c        ****     //Put that calculated value to the Server DB datastructure.
 119:main.c        ****     ExampleData.values[0] = red;   
 132              		.loc 1 119 0
 133 004e 6846     		mov	r0, sp
 134 0050 0170     		strb	r1, [r0]
 120:main.c        ****     ExampleData.values[1] = green;    
 135              		.loc 1 120 0
 136 0052 4270     		strb	r2, [r0, #1]
 121:main.c        ****     ExampleData.values[2] = blue;
 137              		.loc 1 121 0
 138 0054 8370     		strb	r3, [r0, #2]
 122:main.c        **** 
 123:main.c        ****     //Before committing the value to GATTDB, process any previous
 124:main.c        ****     //bluetooth signals.
 125:main.c        ****     CyBle_ProcessEvents();
 139              		.loc 1 125 0
 140 0056 FFF7FEFF 		bl	CyBle_ProcessEvents
 141              	.LVL11:
 126:main.c        ****     
 127:main.c        ****     TransmitDataHandle.attrHandle = 0x000Eu;                //CYBLE_CUSTOMSERVICE_TRANSMITDATA_CHAR
ARM GAS  C:\Users\Harsha\AppData\Local\Temp\ccVXbgTU.s 			page 6


 142              		.loc 1 127 0
 143 005a 01A8     		add	r0, sp, #4
 144 005c 0E23     		mov	r3, #14
 145 005e 0381     		strh	r3, [r0, #8]
 128:main.c        ****     TransmitDataHandle.value.val = ExampleData.bytes;       //Actual values to be stored
 146              		.loc 1 128 0
 147 0060 6B46     		mov	r3, sp
 148 0062 0193     		str	r3, [sp, #4]
 129:main.c        **** 	TransmitDataHandle.value.len = 3;                       //Number of bytes to be transferred or sto
 149              		.loc 1 129 0
 150 0064 0323     		mov	r3, #3
 151 0066 8380     		strh	r3, [r0, #4]
 130:main.c        ****     
 131:main.c        ****     //This function call will store the value to the Server GATTDB. 
 132:main.c        ****     // Any read requests from client after executing below function will 
 133:main.c        ****     // reflect the new values
 134:main.c        ****     CyBle_GattsWriteAttributeValue(&TransmitDataHandle, 
 152              		.loc 1 134 0
 153 0068 0021     		mov	r1, #0
 154 006a 044A     		ldr	r2, .L12+4
 155 006c 0023     		mov	r3, #0
 156 006e FFF7FEFF 		bl	CyBle_GattsWriteAttributeValue
 157              	.LVL12:
 135:main.c        **** 									FALSE, 
 136:main.c        **** 									&cyBle_connHandle, 
 137:main.c        **** 									CYBLE_GATT_DB_LOCALLY_INITIATED);
 138:main.c        ****     
 139:main.c        **** }
 158              		.loc 1 139 0
 159 0072 05B0     		add	sp, sp, #20
 160              		@ sp needed
 161 0074 00BD     		pop	{pc}
 162              	.L13:
 163 0076 C046     		.align	2
 164              	.L12:
 165 0078 00000000 		.word	.L4
 166 007c 00000000 		.word	cyBle_connHandle
 167              		.cfi_endproc
 168              	.LFE35:
 169              		.size	updateGATTDB, .-updateGATTDB
 170              		.section	.text.BluetoothEventHandler,"ax",%progbits
 171              		.align	2
 172              		.global	BluetoothEventHandler
 173              		.code	16
 174              		.thumb_func
 175              		.type	BluetoothEventHandler, %function
 176              	BluetoothEventHandler:
 177              	.LFB36:
 140:main.c        **** 
 141:main.c        **** /*
 142:main.c        **** Name: BluetoothEventHandler
 143:main.c        **** Description: This function will handle all the incoming or outgoing BLUETOOH signals/events
 144:main.c        **** Parameters: event - Type of signal like bluetooth started, bluetooth connected to another device,
 145:main.c        ****                 disconnected from client, read request, write request, etc.
 146:main.c        ****         eventParams - information related to bluetooth event. Like if client wants to write
 147:main.c        ****                        values, then event will write event and eventParams will have data to be wri
 148:main.c        **** return: -
ARM GAS  C:\Users\Harsha\AppData\Local\Temp\ccVXbgTU.s 			page 7


 149:main.c        **** 
 150:main.c        **** */
 151:main.c        **** void BluetoothEventHandler(uint32 event, void * eventParam)
 152:main.c        **** {
 178              		.loc 1 152 0
 179              		.cfi_startproc
 180              	.LVL13:
 181 0000 08B5     		push	{r3, lr}
 182              		.cfi_def_cfa_offset 8
 183              		.cfi_offset 3, -8
 184              		.cfi_offset 14, -4
 153:main.c        ****     //This is the structure which will be passed from the client side
 154:main.c        ****     //when we request for data from client.
 155:main.c        ****     CYBLE_GATTC_READ_RSP_PARAM_T *readParams;
 156:main.c        **** 	
 157:main.c        **** 	switch(event)
 185              		.loc 1 157 0
 186 0002 2828     		cmp	r0, #40
 187 0004 27D0     		beq	.L16
 188 0006 05D8     		bhi	.L17
 189 0008 2628     		cmp	r0, #38
 190 000a 0ED0     		beq	.L18
 191 000c 1FD8     		bhi	.L19
 192 000e 0128     		cmp	r0, #1
 193 0010 07D0     		beq	.L20
 194 0012 4EE0     		b	.L14
 195              	.L17:
 196 0014 4228     		cmp	r0, #66
 197 0016 29D0     		beq	.L21
 198 0018 4928     		cmp	r0, #73
 199 001a 3AD0     		beq	.L22
 200 001c 4128     		cmp	r0, #65
 201 001e 48D1     		bne	.L14
 202 0020 2FE0     		b	.L23
 203              	.L20:
 158:main.c        ****     {
 159:main.c        **** 		case CYBLE_EVT_STACK_ON:
 160:main.c        **** 			/* BLE stack is on. Start BLE advertisement */
 161:main.c        **** 			CyBle_GappStartAdvertisement(CYBLE_ADVERTISING_FAST);
 204              		.loc 1 161 0
 205 0022 0020     		mov	r0, #0
 206              	.LVL14:
 207 0024 FFF7FEFF 		bl	CyBle_GappStartAdvertisement
 208              	.LVL15:
 162:main.c        **** 		break;
 209              		.loc 1 162 0
 210 0028 43E0     		b	.L14
 211              	.LVL16:
 212              	.L18:
 163:main.c        **** 		
 164:main.c        **** 		case CYBLE_EVT_GAPP_ADVERTISEMENT_START_STOP:
 165:main.c        **** 			/* This event is generated whenever Advertisement starts or stops.
 166:main.c        **** 			* The exact state of advertisement is obtained by CyBle_State() */
 167:main.c        **** 			if(CyBle_GetState() == CYBLE_STATE_DISCONNECTED)
 213              		.loc 1 167 0
 214 002a 224B     		ldr	r3, .L26
 215 002c 1B78     		ldrb	r3, [r3]
ARM GAS  C:\Users\Harsha\AppData\Local\Temp\ccVXbgTU.s 			page 8


 216 002e 042B     		cmp	r3, #4
 217 0030 05D1     		bne	.L24
 168:main.c        **** 			{
 169:main.c        ****                 Pin_Status_Write(LOW);
 218              		.loc 1 169 0
 219 0032 0120     		mov	r0, #1
 220              	.LVL17:
 221 0034 FFF7FEFF 		bl	Pin_Status_Write
 222              	.LVL18:
 170:main.c        **** 				CyBle_GappStartAdvertisement(CYBLE_ADVERTISING_FAST);
 223              		.loc 1 170 0
 224 0038 0020     		mov	r0, #0
 225 003a FFF7FEFF 		bl	CyBle_GappStartAdvertisement
 226              	.LVL19:
 227              	.L24:
 171:main.c        **** 			}
 172:main.c        ****            if(CyBle_GetState() == CYBLE_STATE_CONNECTED)
 228              		.loc 1 172 0
 229 003e 1D4B     		ldr	r3, .L26
 230 0040 1B78     		ldrb	r3, [r3]
 231 0042 022B     		cmp	r3, #2
 232 0044 35D1     		bne	.L14
 173:main.c        ****             {
 174:main.c        ****                 deviceConnected = TRUE;
 233              		.loc 1 174 0
 234 0046 0122     		mov	r2, #1
 235 0048 1B4B     		ldr	r3, .L26+4
 236 004a 1A60     		str	r2, [r3]
 237 004c 31E0     		b	.L14
 238              	.LVL20:
 239              	.L19:
 175:main.c        ****             }
 176:main.c        **** 		break;
 177:main.c        ****         case CYBLE_EVT_GAP_DEVICE_CONNECTED:
 178:main.c        ****             {
 179:main.c        ****                 deviceConnected = TRUE;
 240              		.loc 1 179 0
 241 004e 0122     		mov	r2, #1
 242 0050 194B     		ldr	r3, .L26+4
 243 0052 1A60     		str	r2, [r3]
 180:main.c        ****                 break;
 244              		.loc 1 180 0
 245 0054 2DE0     		b	.L14
 246              	.L16:
 181:main.c        ****             }
 182:main.c        **** 			
 183:main.c        **** 		case CYBLE_EVT_GAP_DEVICE_DISCONNECTED:
 184:main.c        **** 			/* This event is generated at GAP disconnection. 
 185:main.c        **** 			* Restart advertisement */
 186:main.c        ****             deviceConnected = FALSE;
 247              		.loc 1 186 0
 248 0056 184B     		ldr	r3, .L26+4
 249 0058 0022     		mov	r2, #0
 250 005a 1A60     		str	r2, [r3]
 187:main.c        ****             nCounter = 0;
 251              		.loc 1 187 0
 252 005c 5A60     		str	r2, [r3, #4]
ARM GAS  C:\Users\Harsha\AppData\Local\Temp\ccVXbgTU.s 			page 9


 188:main.c        ****             updateGATTDB(nCounter);
 253              		.loc 1 188 0
 254 005e 0020     		mov	r0, #0
 255              	.LVL21:
 256 0060 FFF7FEFF 		bl	updateGATTDB
 257              	.LVL22:
 189:main.c        **** 			CyBle_GappStartAdvertisement(CYBLE_ADVERTISING_FAST);
 258              		.loc 1 189 0
 259 0064 0020     		mov	r0, #0
 260 0066 FFF7FEFF 		bl	CyBle_GappStartAdvertisement
 261              	.LVL23:
 190:main.c        **** 			break;
 262              		.loc 1 190 0
 263 006a 22E0     		b	.L14
 264              	.LVL24:
 265              	.L21:
 191:main.c        **** 
 192:main.c        **** 			
 193:main.c        **** 	    case CYBLE_EVT_GATT_DISCONNECT_IND:
 194:main.c        **** 			/* This event is generated at GATT disconnection */
 195:main.c        **** 			deviceConnected = FALSE;
 266              		.loc 1 195 0
 267 006c 124B     		ldr	r3, .L26+4
 268 006e 0022     		mov	r2, #0
 269 0070 1A60     		str	r2, [r3]
 196:main.c        **** 			nCounter = 0;
 270              		.loc 1 196 0
 271 0072 5A60     		str	r2, [r3, #4]
 197:main.c        ****             updateGATTDB(nCounter);
 272              		.loc 1 197 0
 273 0074 0020     		mov	r0, #0
 274              	.LVL25:
 275 0076 FFF7FEFF 		bl	updateGATTDB
 276              	.LVL26:
 198:main.c        ****             CyBle_GappStartAdvertisement(CYBLE_ADVERTISING_FAST);
 277              		.loc 1 198 0
 278 007a 0020     		mov	r0, #0
 279 007c FFF7FEFF 		bl	CyBle_GappStartAdvertisement
 280              	.LVL27:
 199:main.c        **** 			break;
 281              		.loc 1 199 0
 282 0080 17E0     		b	.L14
 283              	.LVL28:
 284              	.L23:
 200:main.c        ****         
 201:main.c        ****         case CYBLE_EVT_GATT_CONNECT_IND:
 202:main.c        **** 
 203:main.c        **** 			/* When the peripheral device is connected, store the connection handle.*/
 204:main.c        ****             connHandle = *(CYBLE_CONN_HANDLE_T *)eventParam;
 285              		.loc 1 204 0
 286 0082 0E48     		ldr	r0, .L26+8
 287              	.LVL29:
 288 0084 0222     		mov	r2, #2
 289 0086 FFF7FEFF 		bl	memcpy
 290              	.LVL30:
 205:main.c        ****             deviceConnected = TRUE;
 291              		.loc 1 205 0
ARM GAS  C:\Users\Harsha\AppData\Local\Temp\ccVXbgTU.s 			page 10


 292 008a 0122     		mov	r2, #1
 293 008c 0A4B     		ldr	r3, .L26+4
 294 008e 1A60     		str	r2, [r3]
 206:main.c        ****             break;
 295              		.loc 1 206 0
 296 0090 0FE0     		b	.L14
 297              	.LVL31:
 298              	.L22:
 207:main.c        ****         
 208:main.c        ****         case CYBLE_EVT_GATTC_READ_RSP:
 209:main.c        **** 			/* This event is generated when the client sends a response to a read request*/
 210:main.c        **** 			readParams = (CYBLE_GATTC_READ_RSP_PARAM_T *) eventParam;
 211:main.c        ****             
 212:main.c        ****             onOff = readParams->value.val[0];
 299              		.loc 1 212 0
 300 0092 4A68     		ldr	r2, [r1, #4]
 301 0094 1378     		ldrb	r3, [r2]
 302 0096 0849     		ldr	r1, .L26+4
 303              	.LVL32:
 304 0098 0B72     		strb	r3, [r1, #8]
 213:main.c        ****             
 214:main.c        ****             
 215:main.c        ****             recievedData.values[0] = readParams->value.val[0];
 305              		.loc 1 215 0
 306 009a 1178     		ldrb	r1, [r2]
 307 009c 084A     		ldr	r2, .L26+12
 308 009e 1170     		strb	r1, [r2]
 216:main.c        ****             
 217:main.c        ****             if(onOff == HIGH)
 309              		.loc 1 217 0
 310 00a0 002B     		cmp	r3, #0
 311 00a2 03D1     		bne	.L25
 218:main.c        ****                 Pin_Red_Write(HIGH);
 312              		.loc 1 218 0
 313 00a4 0020     		mov	r0, #0
 314              	.LVL33:
 315 00a6 FFF7FEFF 		bl	Pin_Red_Write
 316              	.LVL34:
 317 00aa 02E0     		b	.L14
 318              	.LVL35:
 319              	.L25:
 219:main.c        ****             else
 220:main.c        ****                 Pin_Red_Write(LOW);
 320              		.loc 1 220 0
 321 00ac 0120     		mov	r0, #1
 322              	.LVL36:
 323 00ae FFF7FEFF 		bl	Pin_Red_Write
 324              	.LVL37:
 325              	.L14:
 221:main.c        ****                 
 222:main.c        ****             break;
 223:main.c        **** 			
 224:main.c        ****         default:
 225:main.c        **** 
 226:main.c        ****        	break;
 227:main.c        ****     }   	
 228:main.c        **** }
ARM GAS  C:\Users\Harsha\AppData\Local\Temp\ccVXbgTU.s 			page 11


 326              		.loc 1 228 0
 327              		@ sp needed
 328 00b2 08BD     		pop	{r3, pc}
 329              	.L27:
 330              		.align	2
 331              	.L26:
 332 00b4 00000000 		.word	cyBle_state
 333 00b8 00000000 		.word	.LANCHOR0
 334 00bc 00000000 		.word	connHandle
 335 00c0 00000000 		.word	recievedData
 336              		.cfi_endproc
 337              	.LFE36:
 338              		.size	BluetoothEventHandler, .-BluetoothEventHandler
 339              		.section	.text.InitializeSystem,"ax",%progbits
 340              		.align	2
 341              		.global	InitializeSystem
 342              		.code	16
 343              		.thumb_func
 344              		.type	InitializeSystem, %function
 345              	InitializeSystem:
 346              	.LFB38:
 229:main.c        **** 
 230:main.c        **** 
 231:main.c        **** int main()
 232:main.c        **** {
 233:main.c        ****     /* Start the components */
 234:main.c        **** 	InitializeSystem();
 235:main.c        ****     
 236:main.c        ****    
 237:main.c        ****     /* Place your initialization/startup code here (e.g. MyInst_Start()) */
 238:main.c        **** 
 239:main.c        ****     for(;;)
 240:main.c        ****     {   
 241:main.c        ****         //Process the BLUETOOTH events like incoming read request or notifications
 242:main.c        ****         CyBle_ProcessEvents();
 243:main.c        ****         
 244:main.c        ****         //if button is pressed
 245:main.c        ****         if(Pin_button_Read() == HIGH)
 246:main.c        ****         {
 247:main.c        ****             nCounter += 1;
 248:main.c        ****             //Reset the counter once count reaches 8
 249:main.c        ****             if(nCounter == 8)
 250:main.c        ****                 nCounter = 0;
 251:main.c        ****             
 252:main.c        ****             //Update the new value of count to Server DB so that client can get new values
 253:main.c        ****             updateGATTDB(nCounter);
 254:main.c        ****             
 255:main.c        ****             
 256:main.c        ****         }
 257:main.c        ****         
 258:main.c        ****         //If client is connected then only request for data from client
 259:main.c        ****         if(deviceConnected == TRUE)
 260:main.c        ****         {
 261:main.c        ****             //This is just to indicate the client is connected.
 262:main.c        ****             Pin_Status_Write(HIGH);
 263:main.c        ****             //Here I am trying to read the Client Service - CYBLE_ONOFFSERVICE_CUSTOM_CHARACTERISTI
 264:main.c        ****             CyBle_GattcReadCharacteristicValue(connHandle, 0x000Cu);   //*****Characteristic Handle
ARM GAS  C:\Users\Harsha\AppData\Local\Temp\ccVXbgTU.s 			page 12


 265:main.c        ****             
 266:main.c        ****             
 267:main.c        ****         }
 268:main.c        ****         else
 269:main.c        ****         {
 270:main.c        ****             Pin_Status_Write(LOW);
 271:main.c        ****         }
 272:main.c        **** 
 273:main.c        ****          CyDelay(250);
 274:main.c        ****     }
 275:main.c        **** }
 276:main.c        **** 
 277:main.c        **** 
 278:main.c        **** /*
 279:main.c        **** Name: InitializeSystem
 280:main.c        **** Description: This function will bring your system to ready state or initial state
 281:main.c        ****              Here we switch on components like bluetooth or UART, switch of LEDs
 282:main.c        ****              like that.
 283:main.c        **** Parameters: - 
 284:main.c        **** Return: - 
 285:main.c        **** */
 286:main.c        **** void InitializeSystem(void)
 287:main.c        **** {
 347              		.loc 1 287 0
 348              		.cfi_startproc
 349 0000 08B5     		push	{r3, lr}
 350              		.cfi_def_cfa_offset 8
 351              		.cfi_offset 3, -8
 352              		.cfi_offset 14, -4
 288:main.c        **** 	/* Enable Global Interrupt Mask */
 289:main.c        **** 	CyGlobalIntEnable;		
 353              		.loc 1 289 0
 354              	@ 289 "main.c" 1
 355 0002 62B6     		CPSIE   i
 356              	@ 0 "" 2
 290:main.c        **** 
 291:main.c        ****     //This will start the bluetooth and BluetoothEventHandler function will be used
 292:main.c        ****     //to handle the bluetooth events.
 293:main.c        **** 	CyBle_Start(BluetoothEventHandler);
 357              		.loc 1 293 0
 358              		.code	16
 359 0004 0648     		ldr	r0, .L29
 360 0006 FFF7FEFF 		bl	CyBle_Start
 361              	.LVL38:
 294:main.c        ****     
 295:main.c        ****     nCounter = 0;
 362              		.loc 1 295 0
 363 000a 0022     		mov	r2, #0
 364 000c 054B     		ldr	r3, .L29+4
 365 000e 5A60     		str	r2, [r3, #4]
 296:main.c        ****     //Set the initial values in the Server GATT DB
 297:main.c        ****     updateGATTDB(nCounter);
 366              		.loc 1 297 0
 367 0010 0020     		mov	r0, #0
 368 0012 FFF7FEFF 		bl	updateGATTDB
 369              	.LVL39:
 298:main.c        ****     
ARM GAS  C:\Users\Harsha\AppData\Local\Temp\ccVXbgTU.s 			page 13


 299:main.c        ****     //Indicates that no client is connected.
 300:main.c        ****     Pin_Status_Write(LOW);
 370              		.loc 1 300 0
 371 0016 0120     		mov	r0, #1
 372 0018 FFF7FEFF 		bl	Pin_Status_Write
 373              	.LVL40:
 301:main.c        ****     
 302:main.c        ****     
 303:main.c        ****     
 304:main.c        ****     
 305:main.c        **** }
 374              		.loc 1 305 0
 375              		@ sp needed
 376 001c 08BD     		pop	{r3, pc}
 377              	.L30:
 378 001e C046     		.align	2
 379              	.L29:
 380 0020 00000000 		.word	BluetoothEventHandler
 381 0024 00000000 		.word	.LANCHOR0
 382              		.cfi_endproc
 383              	.LFE38:
 384              		.size	InitializeSystem, .-InitializeSystem
 385              		.section	.text.main,"ax",%progbits
 386              		.align	2
 387              		.global	main
 388              		.code	16
 389              		.thumb_func
 390              		.type	main, %function
 391              	main:
 392              	.LFB37:
 232:main.c        ****     /* Start the components */
 393              		.loc 1 232 0
 394              		.cfi_startproc
 395 0000 08B5     		push	{r3, lr}
 396              		.cfi_def_cfa_offset 8
 397              		.cfi_offset 3, -8
 398              		.cfi_offset 14, -4
 234:main.c        ****     
 399              		.loc 1 234 0
 400 0002 FFF7FEFF 		bl	InitializeSystem
 401              	.LVL41:
 402              	.L36:
 242:main.c        ****         
 403              		.loc 1 242 0
 404 0006 FFF7FEFF 		bl	CyBle_ProcessEvents
 405              	.LVL42:
 245:main.c        ****         {
 406              		.loc 1 245 0
 407 000a FFF7FEFF 		bl	Pin_button_Read
 408              	.LVL43:
 409 000e 0028     		cmp	r0, #0
 410 0010 0CD1     		bne	.L32
 247:main.c        ****             //Reset the counter once count reaches 8
 411              		.loc 1 247 0
 412 0012 124A     		ldr	r2, .L37
 413 0014 5368     		ldr	r3, [r2, #4]
 414 0016 0133     		add	r3, r3, #1
ARM GAS  C:\Users\Harsha\AppData\Local\Temp\ccVXbgTU.s 			page 14


 415 0018 5360     		str	r3, [r2, #4]
 249:main.c        ****                 nCounter = 0;
 416              		.loc 1 249 0
 417 001a 082B     		cmp	r3, #8
 418 001c 02D1     		bne	.L33
 250:main.c        ****             
 419              		.loc 1 250 0
 420 001e 0022     		mov	r2, #0
 421 0020 0E4B     		ldr	r3, .L37
 422 0022 5A60     		str	r2, [r3, #4]
 423              	.L33:
 253:main.c        ****             
 424              		.loc 1 253 0
 425 0024 0D4B     		ldr	r3, .L37
 426 0026 5868     		ldr	r0, [r3, #4]
 427 0028 FFF7FEFF 		bl	updateGATTDB
 428              	.LVL44:
 429              	.L32:
 259:main.c        ****         {
 430              		.loc 1 259 0
 431 002c 0B4B     		ldr	r3, .L37
 432 002e 1B68     		ldr	r3, [r3]
 433 0030 012B     		cmp	r3, #1
 434 0032 0BD1     		bne	.L34
 262:main.c        ****             //Here I am trying to read the Client Service - CYBLE_ONOFFSERVICE_CUSTOM_CHARACTERISTI
 435              		.loc 1 262 0
 436 0034 0020     		mov	r0, #0
 437 0036 FFF7FEFF 		bl	Pin_Status_Write
 438              	.LVL45:
 264:main.c        ****             
 439              		.loc 1 264 0
 440 003a 094A     		ldr	r2, .L37+4
 441 003c 1378     		ldrb	r3, [r2]
 442 003e 5078     		ldrb	r0, [r2, #1]
 443 0040 0002     		lsl	r0, r0, #8
 444 0042 1843     		orr	r0, r3
 445 0044 0C21     		mov	r1, #12
 446 0046 FFF7FEFF 		bl	CyBle_GattcReadCharacteristicValue
 447              	.LVL46:
 448 004a 02E0     		b	.L35
 449              	.L34:
 270:main.c        ****         }
 450              		.loc 1 270 0
 451 004c 0120     		mov	r0, #1
 452 004e FFF7FEFF 		bl	Pin_Status_Write
 453              	.LVL47:
 454              	.L35:
 273:main.c        ****     }
 455              		.loc 1 273 0
 456 0052 FA20     		mov	r0, #250
 457 0054 FFF7FEFF 		bl	CyDelay
 458              	.LVL48:
 274:main.c        **** }
 459              		.loc 1 274 0
 460 0058 D5E7     		b	.L36
 461              	.L38:
 462 005a C046     		.align	2
ARM GAS  C:\Users\Harsha\AppData\Local\Temp\ccVXbgTU.s 			page 15


 463              	.L37:
 464 005c 00000000 		.word	.LANCHOR0
 465 0060 00000000 		.word	connHandle
 466              		.cfi_endproc
 467              	.LFE37:
 468              		.size	main, .-main
 469              		.global	deviceConnected
 470              		.comm	recievedData,1,4
 471              		.global	onOff
 472              		.global	nCounter
 473              		.comm	connHandle,2,4
 474              		.bss
 475              		.align	2
 476              		.set	.LANCHOR0,. + 0
 477              		.type	deviceConnected, %object
 478              		.size	deviceConnected, 4
 479              	deviceConnected:
 480 0000 00000000 		.space	4
 481              		.type	nCounter, %object
 482              		.size	nCounter, 4
 483              	nCounter:
 484 0004 00000000 		.space	4
 485              		.type	onOff, %object
 486              		.size	onOff, 1
 487              	onOff:
 488 0008 00       		.space	1
 489 0009 000000   		.text
 490              	.Letext0:
 491              		.file 2 "Generated_Source\\PSoC4/cytypes.h"
 492              		.file 3 "Generated_Source\\PSoC4/BLE_Stack.h"
 493              		.file 4 "Generated_Source\\PSoC4/BLE_StackGatt.h"
 494              		.file 5 "Generated_Source\\PSoC4/BLE_StackGattClient.h"
 495              		.file 6 "Generated_Source\\PSoC4/BLE.h"
 496              		.file 7 "Generated_Source\\PSoC4/BLE_eventHandler.h"
 497              		.file 8 "./main.h"
 498              		.file 9 "Generated_Source\\PSoC4/BLE_StackGattDb.h"
 499              		.file 10 "Generated_Source\\PSoC4/Pin_Status.h"
 500              		.file 11 "Generated_Source\\PSoC4/Pin_Red.h"
 501              		.file 12 "Generated_Source\\PSoC4/Pin_button.h"
 502              		.file 13 "Generated_Source\\PSoC4/CyLib.h"